(lp1
(S'Black'
p2
I1
(lp3
(I282
I182
I288
I184
tp4
a(I288
I184
I301
I191
tp5
a(I301
I191
I314
I197
tp6
a(I314
I197
I325
I204
tp7
a(I325
I204
I337
I214
tp8
a(I337
I214
I346
I225
tp9
a(I346
I225
I353
I234
tp10
a(I353
I234
I356
I242
tp11
a(I356
I242
I358
I252
tp12
a(I358
I252
I358
I262
tp13
a(I358
I262
I357
I275
tp14
a(I357
I275
I352
I286
tp15
a(I352
I286
I343
I295
tp16
a(I343
I295
I334
I304
tp17
a(I334
I304
I325
I311
tp18
a(I325
I311
I314
I315
tp19
a(I314
I315
I302
I317
tp20
a(I302
I317
I291
I316
tp21
a(I291
I316
I278
I312
tp22
a(I278
I312
I270
I305
tp23
a(I270
I305
I262
I296
tp24
a(I262
I296
I257
I288
tp25
a(I257
I288
I251
I272
tp26
a(I251
I272
I251
I262
tp27
a(I251
I262
I252
I249
tp28
a(I252
I249
I258
I239
tp29
a(I258
I239
I267
I230
tp30
a(I267
I230
I275
I224
tp31
a(I275
I224
I293
I218
tp32
a(I293
I218
I311
I212
tp33
a(I311
I212
I328
I211
tp34
a(I328
I211
I346
I211
tp35
a(I346
I211
I356
I211
tp36
a(I356
I211
I366
I209
tp37
a(I366
I209
I372
I207
tp38
a(I372
I207
I374
I207
tp39
a(I374
I207
I375
I207
tp40
a(I375
I207
I376
I207
tp41
atp42
a(g2
I1
(ltp43
a(g2
I1
(lp44
(I180
I273
I180
I274
tp45
a(I180
I274
I180
I280
tp46
a(I180
I280
I180
I288
tp47
a(I180
I288
I180
I295
tp48
a(I180
I295
I180
I305
tp49
a(I180
I305
I180
I320
tp50
a(I180
I320
I180
I332
tp51
a(I180
I332
I182
I350
tp52
a(I182
I350
I184
I367
tp53
a(I184
I367
I184
I382
tp54
a(I184
I382
I186
I399
tp55
a(I186
I399
I190
I415
tp56
a(I190
I415
I195
I430
tp57
a(I195
I430
I203
I446
tp58
a(I203
I446
I215
I462
tp59
a(I215
I462
I227
I473
tp60
a(I227
I473
I240
I481
tp61
a(I240
I481
I255
I487
tp62
a(I255
I487
I271
I491
tp63
a(I271
I491
I295
I491
tp64
a(I295
I491
I320
I491
tp65
a(I320
I491
I344
I491
tp66
a(I344
I491
I369
I485
tp67
a(I369
I485
I391
I481
tp68
a(I391
I481
I447
I461
tp69
a(I447
I461
I468
I446
tp70
a(I468
I446
I489
I429
tp71
a(I489
I429
I508
I415
tp72
a(I508
I415
I520
I399
tp73
a(I520
I399
I530
I383
tp74
a(I530
I383
I537
I372
tp75
a(I537
I372
I542
I361
tp76
a(I542
I361
I544
I351
tp77
a(I544
I351
I546
I341
tp78
a(I546
I341
I548
I330
tp79
a(I548
I330
I548
I320
tp80
a(I548
I320
I547
I310
tp81
a(I547
I310
I543
I299
tp82
a(I543
I299
I540
I291
tp83
a(I540
I291
I535
I282
tp84
a(I535
I282
I529
I272
tp85
a(I529
I272
I523
I265
tp86
a(I523
I265
I516
I256
tp87
a(I516
I256
I507
I247
tp88
a(I507
I247
I498
I238
tp89
a(I498
I238
I489
I233
tp90
a(I489
I233
I477
I221
tp91
a(I477
I221
I466
I212
tp92
a(I466
I212
I453
I202
tp93
a(I453
I202
I441
I193
tp94
a(I441
I193
I426
I185
tp95
a(I426
I185
I410
I179
tp96
a(I410
I179
I392
I173
tp97
a(I392
I173
I375
I167
tp98
a(I375
I167
I357
I161
tp99
a(I357
I161
I342
I159
tp100
a(I342
I159
I324
I158
tp101
a(I324
I158
I307
I158
tp102
a(I307
I158
I290
I158
tp103
a(I290
I158
I278
I158
tp104
a(I278
I158
I265
I158
tp105
a(I265
I158
I250
I158
tp106
a(I250
I158
I238
I158
tp107
a(I238
I158
I230
I158
tp108
a(I230
I158
I224
I160
tp109
a(I224
I160
I218
I163
tp110
a(I218
I163
I214
I167
tp111
a(I214
I167
I210
I171
tp112
a(I210
I171
I204
I180
tp113
a(I204
I180
I200
I186
tp114
a(I200
I186
I195
I195
tp115
a(I195
I195
I192
I199
tp116
a(I192
I199
I190
I206
tp117
a(I190
I206
I188
I209
tp118
a(I188
I209
I188
I213
tp119
a(I188
I213
I188
I214
tp120
a(I188
I214
I188
I215
tp121
a(I188
I215
I191
I215
tp122
a(I191
I215
I194
I215
tp123
a(I194
I215
I198
I215
tp124
a(I198
I215
I200
I215
tp125
atp126
a(g2
I1
(ltp127
a(g2
I1
(ltp128
a(g2
I1
(lp129
(I334
I385
I332
I385
tp130
a(I332
I385
I326
I385
tp131
a(I326
I385
I313
I385
tp132
a(I313
I385
I297
I389
tp133
a(I297
I389
I282
I393
tp134
a(I282
I393
I267
I399
tp135
a(I267
I399
I258
I404
tp136
a(I258
I404
I252
I409
tp137
a(I252
I409
I245
I413
tp138
a(I245
I413
I242
I420
tp139
a(I242
I420
I242
I425
tp140
a(I242
I425
I242
I429
tp141
a(I242
I429
I247
I434
tp142
a(I247
I434
I256
I443
tp143
a(I256
I443
I265
I450
tp144
a(I265
I450
I283
I458
tp145
a(I283
I458
I301
I462
tp146
a(I301
I462
I323
I468
tp147
a(I323
I468
I343
I470
tp148
a(I343
I470
I363
I470
tp149
a(I363
I470
I380
I469
tp150
a(I380
I469
I397
I467
tp151
a(I397
I467
I413
I461
tp152
a(I413
I461
I426
I453
tp153
a(I426
I453
I435
I446
tp154
a(I435
I446
I440
I440
tp155
a(I440
I440
I441
I432
tp156
a(I441
I432
I441
I426
tp157
a(I441
I426
I439
I419
tp158
a(I439
I419
I435
I412
tp159
a(I435
I412
I423
I403
tp160
a(I423
I403
I414
I394
tp161
a(I414
I394
I403
I384
tp162
a(I403
I384
I389
I375
tp163
a(I389
I375
I376
I369
tp164
a(I376
I369
I363
I361
tp165
a(I363
I361
I350
I360
tp166
a(I350
I360
I337
I358
tp167
a(I337
I358
I329
I356
tp168
a(I329
I356
I317
I356
tp169
a(I317
I356
I312
I356
tp170
a(I312
I356
I308
I356
tp171
a(I308
I356
I307
I356
tp172
a(I307
I356
I309
I356
tp173
a(I309
I356
I311
I356
tp174
atp175
a(g2
I1
(ltp176
a(g2
I1
(lp177
(I382
I281
I383
I285
tp178
a(I383
I285
I386
I294
tp179
a(I386
I294
I386
I304
tp180
a(I386
I304
I386
I314
tp181
a(I386
I314
I386
I324
tp182
a(I386
I324
I386
I334
tp183
a(I386
I334
I386
I344
tp184
a(I386
I344
I386
I354
tp185
a(I386
I354
I384
I364
tp186
a(I384
I364
I381
I370
tp187
a(I381
I370
I378
I379
tp188
a(I378
I379
I375
I385
tp189
a(I375
I385
I370
I391
tp190
a(I370
I391
I367
I394
tp191
a(I367
I394
I363
I397
tp192
a(I363
I397
I361
I398
tp193
a(I361
I398
I356
I401
tp194
a(I356
I401
I352
I402
tp195
a(I352
I402
I348
I403
tp196
a(I348
I403
I344
I403
tp197
a(I344
I403
I340
I405
tp198
a(I340
I405
I338
I405
tp199
a(I338
I405
I336
I405
tp200
a(I336
I405
I335
I405
tp201
a(I335
I405
I334
I405
tp202
atp203
a(g2
I1
(lp204
(I287
I228
I288
I229
tp205
a(I288
I229
I288
I230
tp206
a(I288
I230
I291
I232
tp207
a(I291
I232
I294
I236
tp208
a(I294
I236
I295
I241
tp209
a(I295
I241
I298
I246
tp210
a(I298
I246
I301
I255
tp211
a(I301
I255
I307
I266
tp212
a(I307
I266
I310
I274
tp213
a(I310
I274
I312
I284
tp214
a(I312
I284
I315
I295
tp215
a(I315
I295
I317
I303
tp216
a(I317
I303
I318
I313
tp217
a(I318
I313
I320
I319
tp218
a(I320
I319
I320
I323
tp219
a(I320
I323
I320
I327
tp220
a(I320
I327
I320
I331
tp221
a(I320
I331
I320
I332
tp222
a(I320
I332
I320
I334
tp223
a(I320
I334
I320
I335
tp224
a(I320
I335
I320
I337
tp225
a(I320
I337
I320
I338
tp226
a(I320
I338
I320
I339
tp227
a(I320
I339
I319
I340
tp228
a(I319
I340
I318
I341
tp229
a(I318
I341
I317
I343
tp230
a(I317
I343
I316
I344
tp231
a(I316
I344
I315
I344
tp232
a(I315
I344
I312
I345
tp233
a(I312
I345
I311
I346
tp234
a(I311
I346
I310
I347
tp235
a(I310
I347
I309
I347
tp236
a(I309
I347
I308
I348
tp237
a(I308
I348
I307
I349
tp238
a(I307
I349
I306
I349
tp239
a(I306
I349
I304
I350
tp240
a(I304
I350
I303
I350
tp241
a(I303
I350
I300
I350
tp242
a(I300
I350
I299
I351
tp243
a(I299
I351
I298
I351
tp244
a(I298
I351
I297
I351
tp245
atp246
a(g2
I1
(lp247
(I201
I302
I202
I302
tp248
a(I202
I302
I204
I302
tp249
a(I204
I302
I207
I302
tp250
a(I207
I302
I212
I302
tp251
a(I212
I302
I220
I302
tp252
a(I220
I302
I232
I302
tp253
a(I232
I302
I247
I302
tp254
a(I247
I302
I264
I302
tp255
a(I264
I302
I286
I302
tp256
a(I286
I302
I308
I303
tp257
a(I308
I303
I335
I303
tp258
a(I335
I303
I357
I305
tp259
a(I357
I305
I379
I307
tp260
a(I379
I307
I399
I307
tp261
a(I399
I307
I418
I307
tp262
a(I418
I307
I428
I307
tp263
a(I428
I307
I443
I309
tp264
a(I443
I309
I453
I309
tp265
a(I453
I309
I461
I309
tp266
a(I461
I309
I464
I310
tp267
a(I464
I310
I465
I310
tp268
atp269
a(g2
I1
(lp270
(I385
I251
I385
I254
tp271
a(I385
I254
I385
I259
tp272
a(I385
I259
I385
I265
tp273
a(I385
I265
I385
I274
tp274
a(I385
I274
I385
I284
tp275
a(I385
I284
I384
I299
tp276
a(I384
I299
I384
I309
tp277
a(I384
I309
I383
I319
tp278
a(I383
I319
I379
I330
tp279
a(I379
I330
I374
I341
tp280
a(I374
I341
I374
I351
tp281
a(I374
I351
I370
I359
tp282
a(I370
I359
I370
I362
tp283
a(I370
I362
I370
I367
tp284
a(I370
I367
I370
I371
tp285
a(I370
I371
I370
I373
tp286
a(I370
I373
I370
I376
tp287
a(I370
I376
I370
I377
tp288
a(I370
I377
I369
I377
tp289
a(I369
I377
I368
I375
tp290
a(I368
I375
I368
I373
tp291
a(I368
I373
I368
I371
tp292
atp293
a(g2
I1
(lp294
(I352
I277
I353
I280
tp295
a(I353
I280
I355
I286
tp296
a(I355
I286
I356
I294
tp297
a(I356
I294
I356
I304
tp298
a(I356
I304
I356
I314
tp299
a(I356
I314
I356
I324
tp300
a(I356
I324
I356
I334
tp301
a(I356
I334
I356
I342
tp302
a(I356
I342
I358
I350
tp303
a(I358
I350
I358
I355
tp304
a(I358
I355
I359
I361
tp305
a(I359
I361
I359
I365
tp306
a(I359
I365
I361
I370
tp307
a(I361
I370
I364
I375
tp308
a(I364
I375
I366
I377
tp309
a(I366
I377
I368
I381
tp310
a(I368
I381
I369
I384
tp311
a(I369
I384
I371
I386
tp312
a(I371
I386
I372
I387
tp313
a(I372
I387
I374
I389
tp314
a(I374
I389
I375
I390
tp315
a(I375
I390
I376
I390
tp316
a(I376
I390
I377
I391
tp317
a(I377
I391
I378
I391
tp318
a(I378
I391
I379
I391
tp319
a(I379
I391
I380
I391
tp320
a(I380
I391
I381
I391
tp321
a(I381
I391
I382
I391
tp322
a(I382
I391
I383
I391
tp323
a(I383
I391
I385
I391
tp324
a(I385
I391
I386
I390
tp325
a(I386
I390
I388
I390
tp326
a(I388
I390
I392
I390
tp327
a(I392
I390
I396
I390
tp328
a(I396
I390
I399
I388
tp329
a(I399
I388
I403
I387
tp330
a(I403
I387
I407
I386
tp331
a(I407
I386
I411
I386
tp332
a(I411
I386
I415
I384
tp333
a(I415
I384
I421
I383
tp334
a(I421
I383
I423
I382
tp335
a(I423
I382
I427
I380
tp336
a(I427
I380
I431
I379
tp337
a(I431
I379
I435
I376
tp338
a(I435
I376
I438
I375
tp339
a(I438
I375
I442
I372
tp340
a(I442
I372
I443
I368
tp341
a(I443
I368
I446
I365
tp342
a(I446
I365
I449
I363
tp343
a(I449
I363
I450
I359
tp344
a(I450
I359
I451
I356
tp345
a(I451
I356
I453
I352
tp346
a(I453
I352
I454
I350
tp347
a(I454
I350
I454
I346
tp348
a(I454
I346
I455
I342
tp349
a(I455
I342
I455
I338
tp350
a(I455
I338
I457
I332
tp351
a(I457
I332
I457
I328
tp352
a(I457
I328
I458
I322
tp353
a(I458
I322
I458
I317
tp354
a(I458
I317
I458
I311
tp355
a(I458
I311
I458
I306
tp356
a(I458
I306
I458
I300
tp357
a(I458
I300
I458
I296
tp358
a(I458
I296
I458
I293
tp359
a(I458
I293
I458
I290
tp360
a(I458
I290
I458
I288
tp361
a(I458
I288
I458
I285
tp362
a(I458
I285
I458
I284
tp363
a(I458
I284
I458
I283
tp364
a(I458
I283
I457
I283
tp365
a(I457
I283
I456
I283
tp366
a(I456
I283
I455
I283
tp367
a(I455
I283
I454
I283
tp368
a(I454
I283
I452
I283
tp369
a(I452
I283
I450
I283
tp370
a(I450
I283
I449
I283
tp371
a(I449
I283
I447
I283
tp372
a(I447
I283
I445
I283
tp373
a(I445
I283
I441
I283
tp374
a(I441
I283
I438
I283
tp375
a(I438
I283
I434
I283
tp376
a(I434
I283
I430
I283
tp377
a(I430
I283
I428
I285
tp378
a(I428
I285
I424
I285
tp379
a(I424
I285
I421
I286
tp380
a(I421
I286
I420
I287
tp381
a(I420
I287
I419
I288
tp382
a(I419
I288
I418
I289
tp383
a(I418
I289
I417
I291
tp384
a(I417
I291
I416
I294
tp385
a(I416
I294
I415
I296
tp386
a(I415
I296
I415
I299
tp387
a(I415
I299
I413
I303
tp388
a(I413
I303
I413
I304
tp389
a(I413
I304
I413
I306
tp390
a(I413
I306
I413
I308
tp391
a(I413
I308
I413
I309
tp392
a(I413
I309
I413
I313
tp393
a(I413
I313
I414
I315
tp394
a(I414
I315
I415
I319
tp395
a(I415
I319
I416
I324
tp396
a(I416
I324
I416
I325
tp397
a(I416
I325
I417
I327
tp398
a(I417
I327
I420
I333
tp399
a(I420
I333
I423
I337
tp400
a(I423
I337
I425
I343
tp401
a(I425
I343
I429
I347
tp402
a(I429
I347
I433
I351
tp403
a(I433
I351
I436
I354
tp404
a(I436
I354
I438
I356
tp405
a(I438
I356
I441
I359
tp406
a(I441
I359
I443
I360
tp407
a(I443
I360
I446
I361
tp408
a(I446
I361
I447
I361
tp409
a(I447
I361
I448
I363
tp410
a(I448
I363
I450
I363
tp411
a(I450
I363
I451
I363
tp412
a(I451
I363
I452
I363
tp413
a(I452
I363
I453
I363
tp414
a(I453
I363
I456
I363
tp415
a(I456
I363
I458
I363
tp416
a(I458
I363
I460
I363
tp417
a(I460
I363
I464
I363
tp418
a(I464
I363
I467
I363
tp419
a(I467
I363
I471
I363
tp420
a(I471
I363
I473
I363
tp421
a(I473
I363
I474
I363
tp422
a(I474
I363
I476
I363
tp423
a(I476
I363
I479
I363
tp424
a(I479
I363
I480
I364
tp425
a(I480
I364
I481
I366
tp426
a(I481
I366
I482
I370
tp427
a(I482
I370
I482
I375
tp428
a(I482
I375
I482
I381
tp429
a(I482
I381
I482
I386
tp430
a(I482
I386
I484
I392
tp431
a(I484
I392
I484
I398
tp432
a(I484
I398
I484
I403
tp433
a(I484
I403
I484
I407
tp434
a(I484
I407
I483
I410
tp435
a(I483
I410
I482
I412
tp436
a(I482
I412
I479
I416
tp437
a(I479
I416
I477
I419
tp438
a(I477
I419
I474
I421
tp439
a(I474
I421
I472
I423
tp440
a(I472
I423
I469
I425
tp441
a(I469
I425
I465
I427
tp442
a(I465
I427
I461
I428
tp443
a(I461
I428
I458
I429
tp444
a(I458
I429
I457
I430
tp445
a(I457
I430
I456
I430
tp446
a(I456
I430
I455
I431
tp447
a(I455
I431
I454
I431
tp448
a(I454
I431
I453
I431
tp449
a(I453
I431
I452
I431
tp450
a(I452
I431
I452
I432
tp451
a(I452
I432
I451
I432
tp452
a(I451
I432
I451
I431
tp453
atp454
a(g2
I1
(lp455
(I475
I408
I476
I408
tp456
a(I476
I408
I477
I406
tp457
a(I477
I406
I483
I401
tp458
a(I483
I401
I491
I398
tp459
a(I491
I398
I507
I394
tp460
a(I507
I394
I522
I390
tp461
a(I522
I390
I537
I387
tp462
a(I537
I387
I547
I387
tp463
a(I547
I387
I560
I387
tp464
a(I560
I387
I577
I385
tp465
a(I577
I385
I592
I385
tp466
a(I592
I385
I607
I385
tp467
a(I607
I385
I619
I385
tp468
a(I619
I385
I629
I385
tp469
a(I629
I385
I637
I385
tp470
a(I637
I385
I642
I385
tp471
a(I642
I385
I645
I385
tp472
a(I645
I385
I646
I385
tp473
atp474
a(g2
I1
(lp475
(I496
I57
I497
I57
tp476
a(I497
I57
I498
I57
tp477
a(I498
I57
I500
I58
tp478
a(I500
I58
I501
I59
tp479
a(I501
I59
I502
I61
tp480
a(I502
I61
I503
I62
tp481
a(I503
I62
I504
I64
tp482
a(I504
I64
I507
I67
tp483
a(I507
I67
I508
I68
tp484
a(I508
I68
I510
I69
tp485
a(I510
I69
I511
I70
tp486
a(I511
I70
I511
I71
tp487
a(I511
I71
I512
I71
tp488
a(I512
I71
I513
I71
tp489
a(I513
I71
I514
I71
tp490
a(I514
I71
I516
I70
tp491
a(I516
I70
I517
I69
tp492
a(I517
I69
I518
I68
tp493
a(I518
I68
I520
I67
tp494
a(I520
I67
I521
I66
tp495
a(I521
I66
I522
I65
tp496
a(I522
I65
I523
I65
tp497
a(I523
I65
I524
I65
tp498
a(I524
I65
I524
I64
tp499
a(I524
I64
I524
I65
tp500
a(I524
I65
I524
I66
tp501
a(I524
I66
I524
I67
tp502
a(I524
I67
I524
I69
tp503
a(I524
I69
I524
I71
tp504
a(I524
I71
I524
I72
tp505
a(I524
I72
I524
I73
tp506
a(I524
I73
I524
I74
tp507
a(I524
I74
I524
I75
tp508
a(I524
I75
I524
I77
tp509
a(I524
I77
I524
I79
tp510
a(I524
I79
I524
I82
tp511
a(I524
I82
I524
I84
tp512
a(I524
I84
I525
I87
tp513
a(I525
I87
I525
I89
tp514
a(I525
I89
I528
I93
tp515
a(I528
I93
I528
I95
tp516
a(I528
I95
I530
I98
tp517
a(I530
I98
I531
I98
tp518
a(I531
I98
I531
I99
tp519
a(I531
I99
I532
I99
tp520
a(I532
I99
I532
I98
tp521
a(I532
I98
I532
I94
tp522
a(I532
I94
I532
I93
tp523
a(I532
I93
I532
I91
tp524
a(I532
I91
I532
I87
tp525
a(I532
I87
I532
I84
tp526
a(I532
I84
I531
I83
tp527
a(I531
I83
I531
I82
tp528
a(I531
I82
I530
I82
tp529
a(I530
I82
I530
I81
tp530
a(I530
I81
I530
I80
tp531
a(I530
I80
I531
I80
tp532
a(I531
I80
I532
I80
tp533
a(I532
I80
I533
I80
tp534
a(I533
I80
I534
I80
tp535
a(I534
I80
I534
I81
tp536
a(I534
I81
I534
I82
tp537
a(I534
I82
I534
I83
tp538
a(I534
I83
I534
I84
tp539
a(I534
I84
I534
I85
tp540
a(I534
I85
I534
I86
tp541
a(I534
I86
I534
I87
tp542
a(I534
I87
I534
I88
tp543
a(I534
I88
I534
I89
tp544
a(I534
I89
I534
I91
tp545
a(I534
I91
I534
I92
tp546
a(I534
I92
I534
I93
tp547
a(I534
I93
I533
I94
tp548
a(I533
I94
I533
I95
tp549
a(I533
I95
I533
I96
tp550
a(I533
I96
I532
I98
tp551
a(I532
I98
I532
I99
tp552
a(I532
I99
I531
I100
tp553
a(I531
I100
I530
I101
tp554
a(I530
I101
I528
I104
tp555
a(I528
I104
I527
I105
tp556
a(I527
I105
I524
I106
tp557
a(I524
I106
I523
I108
tp558
a(I523
I108
I522
I109
tp559
a(I522
I109
I520
I111
tp560
a(I520
I111
I518
I113
tp561
a(I518
I113
I516
I114
tp562
a(I516
I114
I516
I115
tp563
a(I516
I115
I515
I116
tp564
a(I515
I116
I515
I117
tp565
a(I515
I117
I514
I118
tp566
a(I514
I118
I513
I120
tp567
a(I513
I120
I512
I121
tp568
a(I512
I121
I511
I122
tp569
a(I511
I122
I510
I123
tp570
a(I510
I123
I510
I124
tp571
a(I510
I124
I510
I125
tp572
a(I510
I125
I511
I125
tp573
a(I511
I125
I512
I125
tp574
a(I512
I125
I513
I125
tp575
a(I513
I125
I514
I125
tp576
a(I514
I125
I515
I125
tp577
a(I515
I125
I516
I125
tp578
a(I516
I125
I517
I125
tp579
a(I517
I125
I519
I127
tp580
a(I519
I127
I520
I128
tp581
a(I520
I128
I523
I129
tp582
a(I523
I129
I524
I129
tp583
a(I524
I129
I525
I130
tp584
a(I525
I130
I526
I131
tp585
a(I526
I131
I527
I131
tp586
a(I527
I131
I528
I131
tp587
a(I528
I131
I528
I130
tp588
a(I528
I130
I529
I129
tp589
a(I529
I129
I529
I128
tp590
a(I529
I128
I530
I127
tp591
a(I530
I127
I530
I126
tp592
a(I530
I126
I531
I125
tp593
a(I531
I125
I531
I124
tp594
a(I531
I124
I532
I124
tp595
a(I532
I124
I532
I123
tp596
a(I532
I123
I532
I122
tp597
a(I532
I122
I532
I121
tp598
a(I532
I121
I531
I121
tp599
a(I531
I121
I530
I120
tp600
a(I530
I120
I530
I119
tp601
a(I530
I119
I529
I119
tp602
a(I529
I119
I529
I118
tp603
a(I529
I118
I530
I118
tp604
a(I530
I118
I531
I117
tp605
a(I531
I117
I532
I116
tp606
a(I532
I116
I533
I116
tp607
a(I533
I116
I534
I116
tp608
a(I534
I116
I535
I116
tp609
a(I535
I116
I536
I116
tp610
a(I536
I116
I537
I116
tp611
a(I537
I116
I538
I116
tp612
a(I538
I116
I539
I116
tp613
a(I539
I116
I540
I116
tp614
a(I540
I116
I542
I116
tp615
a(I542
I116
I543
I116
tp616
a(I543
I116
I544
I116
tp617
a(I544
I116
I545
I116
tp618
a(I545
I116
I545
I117
tp619
a(I545
I117
I546
I117
tp620
a(I546
I117
I545
I117
tp621
atp622
a(g2
I1
(lp623
(I573
I85
I574
I85
tp624
a(I574
I85
I575
I85
tp625
a(I575
I85
I576
I85
tp626
a(I576
I85
I577
I85
tp627
a(I577
I85
I578
I85
tp628
a(I578
I85
I579
I85
tp629
a(I579
I85
I580
I85
tp630
a(I580
I85
I581
I85
tp631
a(I581
I85
I582
I85
tp632
a(I582
I85
I582
I84
tp633
a(I582
I84
I582
I83
tp634
a(I582
I83
I581
I83
tp635
a(I581
I83
I581
I82
tp636
a(I581
I82
I581
I81
tp637
a(I581
I81
I580
I81
tp638
a(I580
I81
I580
I84
tp639
a(I580
I84
I580
I85
tp640
a(I580
I85
I581
I86
tp641
a(I581
I86
I581
I87
tp642
a(I581
I87
I581
I89
tp643
a(I581
I89
I581
I90
tp644
a(I581
I90
I581
I91
tp645
a(I581
I91
I581
I92
tp646
a(I581
I92
I581
I94
tp647
a(I581
I94
I581
I95
tp648
a(I581
I95
I581
I96
tp649
a(I581
I96
I581
I97
tp650
a(I581
I97
I581
I99
tp651
a(I581
I99
I581
I100
tp652
a(I581
I100
I581
I101
tp653
a(I581
I101
I581
I102
tp654
a(I581
I102
I581
I103
tp655
a(I581
I103
I581
I104
tp656
a(I581
I104
I581
I105
tp657
a(I581
I105
I581
I106
tp658
a(I581
I106
I581
I107
tp659
a(I581
I107
I582
I108
tp660
a(I582
I108
I582
I109
tp661
a(I582
I109
I583
I111
tp662
a(I583
I111
I583
I112
tp663
a(I583
I112
I583
I113
tp664
a(I583
I113
I584
I114
tp665
a(I584
I114
I584
I113
tp666
a(I584
I113
I583
I112
tp667
a(I583
I112
I582
I111
tp668
a(I582
I111
I582
I109
tp669
a(I582
I109
I582
I108
tp670
a(I582
I108
I582
I107
tp671
a(I582
I107
I581
I106
tp672
a(I581
I106
I581
I104
tp673
a(I581
I104
I580
I102
tp674
a(I580
I102
I579
I100
tp675
a(I579
I100
I579
I99
tp676
a(I579
I99
I578
I97
tp677
a(I578
I97
I578
I96
tp678
a(I578
I96
I578
I95
tp679
a(I578
I95
I577
I95
tp680
a(I577
I95
I577
I94
tp681
a(I577
I94
I577
I93
tp682
a(I577
I93
I577
I92
tp683
a(I577
I92
I577
I93
tp684
a(I577
I93
I577
I94
tp685
a(I577
I94
I577
I96
tp686
a(I577
I96
I577
I97
tp687
a(I577
I97
I577
I99
tp688
a(I577
I99
I577
I100
tp689
a(I577
I100
I577
I101
tp690
a(I577
I101
I577
I103
tp691
a(I577
I103
I577
I104
tp692
a(I577
I104
I577
I105
tp693
a(I577
I105
I577
I106
tp694
a(I577
I106
I577
I107
tp695
a(I577
I107
I577
I108
tp696
a(I577
I108
I577
I109
tp697
a(I577
I109
I578
I109
tp698
a(I578
I109
I578
I107
tp699
a(I578
I107
I579
I105
tp700
a(I579
I105
I579
I103
tp701
a(I579
I103
I579
I102
tp702
a(I579
I102
I580
I101
tp703
a(I580
I101
I580
I100
tp704
a(I580
I100
I581
I99
tp705
a(I581
I99
I582
I98
tp706
a(I582
I98
I583
I98
tp707
a(I583
I98
I583
I97
tp708
a(I583
I97
I583
I96
tp709
a(I583
I96
I584
I96
tp710
a(I584
I96
I584
I95
tp711
a(I584
I95
I584
I94
tp712
a(I584
I94
I585
I94
tp713
a(I585
I94
I585
I93
tp714
a(I585
I93
I585
I90
tp715
a(I585
I90
I585
I89
tp716
a(I585
I89
I585
I88
tp717
atp718
a(g2
I1
(lp719
(I589
I74
I590
I74
tp720
a(I590
I74
I591
I74
tp721
a(I591
I74
I594
I74
tp722
a(I594
I74
I595
I75
tp723
a(I595
I75
I595
I76
tp724
a(I595
I76
I596
I77
tp725
a(I596
I77
I596
I78
tp726
a(I596
I78
I597
I78
tp727
a(I597
I78
I598
I78
tp728
a(I598
I78
I598
I79
tp729
a(I598
I79
I597
I80
tp730
a(I597
I80
I597
I81
tp731
a(I597
I81
I596
I82
tp732
a(I596
I82
I594
I84
tp733
a(I594
I84
I593
I85
tp734
a(I593
I85
I592
I86
tp735
a(I592
I86
I592
I87
tp736
a(I592
I87
I591
I88
tp737
a(I591
I88
I591
I90
tp738
a(I591
I90
I590
I90
tp739
a(I590
I90
I590
I91
tp740
a(I590
I91
I590
I92
tp741
a(I590
I92
I591
I92
tp742
a(I591
I92
I592
I92
tp743
a(I592
I92
I593
I92
tp744
a(I593
I92
I593
I93
tp745
a(I593
I93
I593
I94
tp746
a(I593
I94
I593
I95
tp747
a(I593
I95
I593
I96
tp748
a(I593
I96
I593
I97
tp749
a(I593
I97
I593
I98
tp750
a(I593
I98
I593
I99
tp751
a(I593
I99
I593
I100
tp752
a(I593
I100
I593
I101
tp753
a(I593
I101
I593
I102
tp754
a(I593
I102
I593
I103
tp755
a(I593
I103
I595
I103
tp756
a(I595
I103
I596
I103
tp757
a(I596
I103
I596
I104
tp758
a(I596
I104
I597
I105
tp759
a(I597
I105
I597
I106
tp760
a(I597
I106
I597
I107
tp761
a(I597
I107
I597
I108
tp762
a(I597
I108
I597
I109
tp763
a(I597
I109
I596
I112
tp764
a(I596
I112
I595
I113
tp765
a(I595
I113
I595
I114
tp766
a(I595
I114
I595
I115
tp767
a(I595
I115
I597
I116
tp768
a(I597
I116
I598
I116
tp769
a(I598
I116
I599
I116
tp770
a(I599
I116
I600
I116
tp771
a(I600
I116
I601
I116
tp772
a(I601
I116
I602
I115
tp773
a(I602
I115
I603
I115
tp774
a(I603
I115
I604
I114
tp775
a(I604
I114
I604
I113
tp776
a(I604
I113
I604
I112
tp777
a(I604
I112
I604
I111
tp778
a(I604
I111
I603
I111
tp779
a(I603
I111
I602
I110
tp780
a(I602
I110
I601
I109
tp781
a(I601
I109
I601
I108
tp782
a(I601
I108
I600
I106
tp783
a(I600
I106
I600
I105
tp784
a(I600
I105
I599
I105
tp785
a(I599
I105
I599
I104
tp786
a(I599
I104
I599
I103
tp787
a(I599
I103
I599
I104
tp788
a(I599
I104
I599
I107
tp789
a(I599
I107
I599
I108
tp790
a(I599
I108
I599
I110
tp791
a(I599
I110
I599
I112
tp792
a(I599
I112
I600
I113
tp793
a(I600
I113
I600
I114
tp794
a(I600
I114
I600
I117
tp795
a(I600
I117
I601
I118
tp796
a(I601
I118
I602
I120
tp797
a(I602
I120
I603
I124
tp798
a(I603
I124
I605
I127
tp799
a(I605
I127
I605
I129
tp800
a(I605
I129
I606
I130
tp801
a(I606
I130
I606
I131
tp802
a(I606
I131
I607
I132
tp803
a(I607
I132
I607
I133
tp804
a(I607
I133
I607
I134
tp805
a(I607
I134
I608
I134
tp806
a(I608
I134
I608
I135
tp807
a(I608
I135
I608
I136
tp808
a(I608
I136
I608
I137
tp809
a(I608
I137
I609
I137
tp810
a(I609
I137
I609
I138
tp811
a(I609
I138
I609
I139
tp812
a(I609
I139
I609
I141
tp813
a(I609
I141
I609
I142
tp814
a(I609
I142
I609
I143
tp815
a(I609
I143
I609
I144
tp816
a(I609
I144
I609
I145
tp817
a(I609
I145
I609
I146
tp818
a(I609
I146
I609
I147
tp819
a(I609
I147
I609
I148
tp820
a(I609
I148
I609
I149
tp821
a(I609
I149
I609
I150
tp822
a(I609
I150
I609
I151
tp823
a(I609
I151
I609
I152
tp824
a(I609
I152
I608
I152
tp825
a(I608
I152
I608
I153
tp826
a(I608
I153
I608
I151
tp827
a(I608
I151
I608
I150
tp828
atp829
a(g2
I1
(lp830
(I633
I94
I634
I94
tp831
a(I634
I94
I636
I94
tp832
a(I636
I94
I637
I94
tp833
a(I637
I94
I639
I93
tp834
a(I639
I93
I642
I91
tp835
a(I642
I91
I645
I90
tp836
a(I645
I90
I649
I89
tp837
a(I649
I89
I653
I88
tp838
a(I653
I88
I654
I88
tp839
a(I654
I88
I659
I85
tp840
a(I659
I85
I661
I85
tp841
a(I661
I85
I664
I85
tp842
a(I664
I85
I666
I84
tp843
a(I666
I84
I667
I84
tp844
a(I667
I84
I666
I84
tp845
a(I666
I84
I664
I84
tp846
a(I664
I84
I663
I83
tp847
a(I663
I83
I662
I82
tp848
a(I662
I82
I661
I81
tp849
a(I661
I81
I660
I81
tp850
a(I660
I81
I659
I79
tp851
a(I659
I79
I659
I80
tp852
a(I659
I80
I659
I82
tp853
a(I659
I82
I660
I84
tp854
a(I660
I84
I660
I85
tp855
a(I660
I85
I660
I88
tp856
a(I660
I88
I660
I90
tp857
a(I660
I90
I660
I91
tp858
a(I660
I91
I660
I93
tp859
a(I660
I93
I660
I94
tp860
a(I660
I94
I660
I95
tp861
a(I660
I95
I660
I96
tp862
a(I660
I96
I660
I99
tp863
a(I660
I99
I660
I100
tp864
a(I660
I100
I660
I101
tp865
a(I660
I101
I660
I102
tp866
a(I660
I102
I660
I103
tp867
a(I660
I103
I660
I104
tp868
a(I660
I104
I660
I105
tp869
a(I660
I105
I660
I106
tp870
a(I660
I106
I660
I107
tp871
a(I660
I107
I660
I108
tp872
a(I660
I108
I660
I107
tp873
a(I660
I107
I660
I105
tp874
a(I660
I105
I660
I104
tp875
a(I660
I104
I660
I103
tp876
atp877
a(g2
I1
(lp878
(I655
I88
I655
I89
tp879
a(I655
I89
I655
I90
tp880
a(I655
I90
I655
I91
tp881
a(I655
I91
I655
I93
tp882
a(I655
I93
I655
I94
tp883
a(I655
I94
I655
I97
tp884
a(I655
I97
I655
I98
tp885
a(I655
I98
I655
I100
tp886
a(I655
I100
I655
I101
tp887
a(I655
I101
I655
I102
tp888
a(I655
I102
I655
I103
tp889
a(I655
I103
I654
I104
tp890
a(I654
I104
I654
I105
tp891
a(I654
I105
I653
I106
tp892
a(I653
I106
I653
I105
tp893
a(I653
I105
I654
I104
tp894
a(I654
I104
I654
I102
tp895
atp896
a(g2
I1
(lp897
(I685
I64
I685
I65
tp898
a(I685
I65
I685
I67
tp899
a(I685
I67
I684
I68
tp900
a(I684
I68
I684
I69
tp901
a(I684
I69
I684
I70
tp902
a(I684
I70
I684
I71
tp903
a(I684
I71
I683
I72
tp904
a(I683
I72
I683
I73
tp905
a(I683
I73
I683
I74
tp906
a(I683
I74
I684
I74
tp907
a(I684
I74
I685
I74
tp908
a(I685
I74
I686
I74
tp909
a(I686
I74
I689
I73
tp910
a(I689
I73
I690
I73
tp911
a(I690
I73
I691
I73
tp912
a(I691
I73
I692
I72
tp913
a(I692
I72
I693
I72
tp914
a(I693
I72
I693
I71
tp915
a(I693
I71
I694
I71
tp916
a(I694
I71
I693
I71
tp917
a(I693
I71
I692
I70
tp918
a(I692
I70
I691
I70
tp919
a(I691
I70
I690
I69
tp920
a(I690
I69
I688
I68
tp921
a(I688
I68
I688
I67
tp922
a(I688
I67
I687
I67
tp923
a(I687
I67
I687
I68
tp924
a(I687
I68
I687
I70
tp925
a(I687
I70
I687
I71
tp926
a(I687
I71
I687
I72
tp927
a(I687
I72
I687
I73
tp928
a(I687
I73
I687
I75
tp929
a(I687
I75
I687
I77
tp930
a(I687
I77
I687
I79
tp931
a(I687
I79
I687
I81
tp932
a(I687
I81
I687
I83
tp933
a(I687
I83
I687
I89
tp934
a(I687
I89
I687
I91
tp935
a(I687
I91
I687
I97
tp936
a(I687
I97
I687
I101
tp937
a(I687
I101
I687
I105
tp938
a(I687
I105
I687
I109
tp939
a(I687
I109
I687
I113
tp940
a(I687
I113
I687
I115
tp941
a(I687
I115
I687
I117
tp942
a(I687
I117
I687
I118
tp943
a(I687
I118
I687
I121
tp944
a(I687
I121
I687
I122
tp945
a(I687
I122
I687
I123
tp946
a(I687
I123
I687
I124
tp947
a(I687
I124
I686
I123
tp948
a(I686
I123
I686
I122
tp949
a(I686
I122
I686
I121
tp950
a(I686
I121
I686
I120
tp951
a(I686
I120
I686
I118
tp952
a(I686
I118
I686
I117
tp953
a(I686
I117
I686
I116
tp954
a(I686
I116
I686
I115
tp955
a(I686
I115
I686
I113
tp956
a(I686
I113
I686
I112
tp957
a(I686
I112
I686
I111
tp958
a(I686
I111
I685
I107
tp959
a(I685
I107
I685
I103
tp960
a(I685
I103
I684
I101
tp961
atp962
a(g2
I1
(lp963
(I684
I86
I684
I85
tp964
a(I684
I85
I685
I85
tp965
a(I685
I85
I686
I85
tp966
a(I686
I85
I687
I85
tp967
a(I687
I85
I688
I85
tp968
a(I688
I85
I688
I84
tp969
a(I688
I84
I689
I84
tp970
a(I689
I84
I690
I84
tp971
a(I690
I84
I691
I84
tp972
a(I691
I84
I692
I83
tp973
a(I692
I83
I692
I84
tp974
a(I692
I84
I692
I86
tp975
a(I692
I86
I692
I88
tp976
a(I692
I88
I692
I89
tp977
a(I692
I89
I692
I90
tp978
a(I692
I90
I692
I91
tp979
a(I692
I91
I692
I93
tp980
a(I692
I93
I692
I94
tp981
a(I692
I94
I692
I96
tp982
a(I692
I96
I692
I97
tp983
a(I692
I97
I692
I99
tp984
a(I692
I99
I692
I100
tp985
a(I692
I100
I692
I101
tp986
a(I692
I101
I692
I102
tp987
a(I692
I102
I692
I103
tp988
a(I692
I103
I692
I104
tp989
a(I692
I104
I692
I105
tp990
a(I692
I105
I693
I105
tp991
a(I693
I105
I693
I106
tp992
a(I693
I106
I693
I107
tp993
a(I693
I107
I692
I106
tp994
a(I692
I106
I691
I105
tp995
a(I691
I105
I691
I104
tp996
a(I691
I104
I690
I101
tp997
atp998
a(g2
I1
(lp999
(I688
I95
I689
I95
tp1000
a(I689
I95
I690
I95
tp1001
a(I690
I95
I690
I94
tp1002
a(I690
I94
I691
I94
tp1003
a(I691
I94
I692
I93
tp1004
a(I692
I93
I692
I94
tp1005
a(I692
I94
I692
I95
tp1006
a(I692
I95
I692
I97
tp1007
a(I692
I97
I691
I98
tp1008
a(I691
I98
I690
I99
tp1009
a(I690
I99
I690
I100
tp1010
a(I690
I100
I690
I101
tp1011
a(I690
I101
I689
I101
tp1012
a(I689
I101
I689
I102
tp1013
a(I689
I102
I689
I101
tp1014
a(I689
I101
I689
I100
tp1015
a(I689
I100
I690
I99
tp1016
a(I690
I99
I690
I98
tp1017
a(I690
I98
I691
I97
tp1018
a(I691
I97
I692
I96
tp1019
a(I692
I96
I692
I95
tp1020
a(I692
I95
I693
I94
tp1021
a(I693
I94
I693
I93
tp1022
a(I693
I93
I693
I92
tp1023
a(I693
I92
I694
I91
tp1024
a(I694
I91
I695
I90
tp1025
a(I695
I90
I695
I88
tp1026
a(I695
I88
I696
I87
tp1027
a(I696
I87
I696
I86
tp1028
a(I696
I86
I697
I86
tp1029
a(I697
I86
I697
I84
tp1030
a(I697
I84
I698
I83
tp1031
a(I698
I83
I698
I82
tp1032
a(I698
I82
I699
I81
tp1033
a(I699
I81
I700
I81
tp1034
a(I700
I81
I700
I80
tp1035
a(I700
I80
I701
I80
tp1036
a(I701
I80
I701
I79
tp1037
a(I701
I79
I701
I80
tp1038
a(I701
I80
I701
I83
tp1039
a(I701
I83
I701
I84
tp1040
a(I701
I84
I701
I85
tp1041
a(I701
I85
I701
I87
tp1042
a(I701
I87
I701
I88
tp1043
a(I701
I88
I700
I89
tp1044
a(I700
I89
I700
I90
tp1045
a(I700
I90
I699
I92
tp1046
a(I699
I92
I699
I93
tp1047
a(I699
I93
I699
I95
tp1048
a(I699
I95
I698
I95
tp1049
a(I698
I95
I698
I96
tp1050
a(I698
I96
I698
I97
tp1051
a(I698
I97
I699
I97
tp1052
a(I699
I97
I700
I97
tp1053
a(I700
I97
I701
I96
tp1054
a(I701
I96
I701
I94
tp1055
a(I701
I94
I701
I93
tp1056
a(I701
I93
I702
I93
tp1057
a(I702
I93
I703
I92
tp1058
a(I703
I92
I703
I91
tp1059
a(I703
I91
I704
I91
tp1060
a(I704
I91
I704
I90
tp1061
a(I704
I90
I703
I89
tp1062
a(I703
I89
I703
I88
tp1063
a(I703
I88
I703
I87
tp1064
a(I703
I87
I703
I86
tp1065
a(I703
I86
I702
I85
tp1066
a(I702
I85
I701
I84
tp1067
a(I701
I84
I701
I83
tp1068
a(I701
I83
I700
I82
tp1069
a(I700
I82
I700
I81
tp1070
a(I700
I81
I699
I80
tp1071
a(I699
I80
I699
I79
tp1072
a(I699
I79
I699
I78
tp1073
a(I699
I78
I698
I78
tp1074
a(I698
I78
I698
I77
tp1075
a(I698
I77
I698
I76
tp1076
a(I698
I76
I697
I76
tp1077
a(I697
I76
I697
I75
tp1078
a(I697
I75
I696
I75
tp1079
a(I696
I75
I696
I73
tp1080
a(I696
I73
I696
I75
tp1081
a(I696
I75
I696
I76
tp1082
a(I696
I76
I696
I77
tp1083
a(I696
I77
I696
I78
tp1084
a(I696
I78
I697
I79
tp1085
a(I697
I79
I697
I81
tp1086
a(I697
I81
I698
I82
tp1087
a(I698
I82
I698
I84
tp1088
a(I698
I84
I698
I85
tp1089
a(I698
I85
I698
I88
tp1090
a(I698
I88
I699
I89
tp1091
a(I699
I89
I700
I90
tp1092
a(I700
I90
I700
I92
tp1093
a(I700
I92
I701
I95
tp1094
a(I701
I95
I702
I96
tp1095
a(I702
I96
I702
I97
tp1096
a(I702
I97
I703
I98
tp1097
a(I703
I98
I703
I99
tp1098
a(I703
I99
I703
I100
tp1099
a(I703
I100
I703
I101
tp1100
a(I703
I101
I705
I101
tp1101
a(I705
I101
I706
I101
tp1102
a(I706
I101
I707
I101
tp1103
a(I707
I101
I708
I101
tp1104
a(I708
I101
I709
I101
tp1105
a(I709
I101
I710
I101
tp1106
a(I710
I101
I710
I102
tp1107
a(I710
I102
I711
I102
tp1108
a(I711
I102
I712
I102
tp1109
a(I712
I102
I712
I103
tp1110
a(I712
I103
I712
I104
tp1111
a(I712
I104
I712
I105
tp1112
a(I712
I105
I712
I106
tp1113
a(I712
I106
I712
I107
tp1114
a(I712
I107
I712
I108
tp1115
a(I712
I108
I711
I109
tp1116
a(I711
I109
I710
I109
tp1117
a(I710
I109
I710
I110
tp1118
a(I710
I110
I710
I111
tp1119
a(I710
I111
I710
I112
tp1120
a(I710
I112
I710
I113
tp1121
a(I710
I113
I710
I114
tp1122
a(I710
I114
I711
I114
tp1123
a(I711
I114
I711
I116
tp1124
a(I711
I116
I712
I116
tp1125
a(I712
I116
I713
I116
tp1126
a(I713
I116
I714
I116
tp1127
a(I714
I116
I713
I116
tp1128
a(I713
I116
I712
I115
tp1129
a(I712
I115
I712
I114
tp1130
a(I712
I114
I711
I114
tp1131
a(I711
I114
I710
I113
tp1132
atp1133
a(g2
I1
(lp1134
(I572
I191
I572
I192
tp1135
a(I572
I192
I573
I193
tp1136
a(I573
I193
I574
I194
tp1137
a(I574
I194
I575
I195
tp1138
a(I575
I195
I576
I195
tp1139
a(I576
I195
I576
I196
tp1140
a(I576
I196
I577
I197
tp1141
a(I577
I197
I578
I198
tp1142
a(I578
I198
I579
I199
tp1143
a(I579
I199
I579
I200
tp1144
a(I579
I200
I579
I201
tp1145
a(I579
I201
I579
I202
tp1146
a(I579
I202
I579
I203
tp1147
a(I579
I203
I579
I206
tp1148
a(I579
I206
I578
I207
tp1149
a(I578
I207
I577
I208
tp1150
a(I577
I208
I577
I209
tp1151
a(I577
I209
I576
I209
tp1152
a(I576
I209
I576
I211
tp1153
a(I576
I211
I575
I211
tp1154
a(I575
I211
I575
I212
tp1155
a(I575
I212
I575
I213
tp1156
a(I575
I213
I576
I214
tp1157
a(I576
I214
I578
I214
tp1158
a(I578
I214
I579
I214
tp1159
a(I579
I214
I580
I214
tp1160
a(I580
I214
I581
I214
tp1161
a(I581
I214
I583
I214
tp1162
a(I583
I214
I584
I215
tp1163
a(I584
I215
I584
I216
tp1164
a(I584
I216
I584
I217
tp1165
a(I584
I217
I584
I218
tp1166
a(I584
I218
I584
I219
tp1167
a(I584
I219
I584
I220
tp1168
a(I584
I220
I584
I223
tp1169
a(I584
I223
I584
I224
tp1170
a(I584
I224
I584
I225
tp1171
a(I584
I225
I584
I226
tp1172
a(I584
I226
I584
I227
tp1173
a(I584
I227
I584
I228
tp1174
a(I584
I228
I584
I229
tp1175
a(I584
I229
I584
I230
tp1176
a(I584
I230
I584
I231
tp1177
a(I584
I231
I585
I231
tp1178
a(I585
I231
I585
I232
tp1179
a(I585
I232
I586
I232
tp1180
a(I586
I232
I586
I228
tp1181
a(I586
I228
I586
I224
tp1182
a(I586
I224
I586
I222
tp1183
a(I586
I222
I587
I218
tp1184
a(I587
I218
I587
I216
tp1185
a(I587
I216
I588
I213
tp1186
a(I588
I213
I588
I212
tp1187
a(I588
I212
I588
I211
tp1188
a(I588
I211
I589
I210
tp1189
a(I589
I210
I590
I210
tp1190
a(I590
I210
I591
I210
tp1191
a(I591
I210
I592
I210
tp1192
a(I592
I210
I594
I211
tp1193
a(I594
I211
I596
I211
tp1194
a(I596
I211
I596
I212
tp1195
a(I596
I212
I597
I213
tp1196
a(I597
I213
I598
I214
tp1197
a(I598
I214
I599
I215
tp1198
a(I599
I215
I600
I216
tp1199
a(I600
I216
I601
I217
tp1200
a(I601
I217
I601
I219
tp1201
a(I601
I219
I601
I220
tp1202
a(I601
I220
I601
I221
tp1203
a(I601
I221
I601
I222
tp1204
a(I601
I222
I601
I223
tp1205
a(I601
I223
I600
I225
tp1206
a(I600
I225
I600
I226
tp1207
a(I600
I226
I600
I227
tp1208
a(I600
I227
I599
I227
tp1209
a(I599
I227
I599
I228
tp1210
a(I599
I228
I600
I228
tp1211
a(I600
I228
I601
I228
tp1212
a(I601
I228
I602
I228
tp1213
a(I602
I228
I603
I228
tp1214
a(I603
I228
I604
I228
tp1215
a(I604
I228
I606
I228
tp1216
a(I606
I228
I607
I228
tp1217
a(I607
I228
I608
I228
tp1218
a(I608
I228
I609
I228
tp1219
a(I609
I228
I610
I228
tp1220
a(I610
I228
I612
I228
tp1221
a(I612
I228
I613
I228
tp1222
a(I613
I228
I614
I228
tp1223
a(I614
I228
I615
I228
tp1224
a(I615
I228
I616
I228
tp1225
a(I616
I228
I616
I227
tp1226
a(I616
I227
I617
I227
tp1227
a(I617
I227
I617
I226
tp1228
atp1229
a(g2
I1
(lp1230
(I608
I216
I607
I216
tp1231
a(I607
I216
I606
I216
tp1232
a(I606
I216
I605
I217
tp1233
a(I605
I217
I604
I217
tp1234
a(I604
I217
I603
I218
tp1235
a(I603
I218
I602
I218
tp1236
a(I602
I218
I601
I218
tp1237
a(I601
I218
I602
I218
tp1238
atp1239
a(g2
I1
(lp1240
(I634
I196
I634
I197
tp1241
a(I634
I197
I634
I198
tp1242
a(I634
I198
I634
I199
tp1243
a(I634
I199
I633
I200
tp1244
a(I633
I200
I632
I201
tp1245
a(I632
I201
I630
I203
tp1246
a(I630
I203
I629
I205
tp1247
a(I629
I205
I628
I206
tp1248
a(I628
I206
I627
I207
tp1249
a(I627
I207
I627
I208
tp1250
a(I627
I208
I626
I208
tp1251
a(I626
I208
I626
I209
tp1252
a(I626
I209
I626
I210
tp1253
a(I626
I210
I627
I211
tp1254
a(I627
I211
I628
I211
tp1255
a(I628
I211
I628
I212
tp1256
a(I628
I212
I631
I212
tp1257
a(I631
I212
I631
I213
tp1258
a(I631
I213
I632
I214
tp1259
a(I632
I214
I632
I215
tp1260
a(I632
I215
I633
I215
tp1261
a(I633
I215
I634
I216
tp1262
a(I634
I216
I634
I217
tp1263
a(I634
I217
I634
I218
tp1264
a(I634
I218
I635
I218
tp1265
a(I635
I218
I635
I219
tp1266
a(I635
I219
I635
I220
tp1267
a(I635
I220
I635
I221
tp1268
a(I635
I221
I635
I222
tp1269
a(I635
I222
I635
I223
tp1270
a(I635
I223
I635
I224
tp1271
a(I635
I224
I635
I225
tp1272
a(I635
I225
I634
I227
tp1273
a(I634
I227
I634
I226
tp1274
a(I634
I226
I634
I225
tp1275
a(I634
I225
I634
I223
tp1276
a(I634
I223
I634
I221
tp1277
a(I634
I221
I634
I217
tp1278
a(I634
I217
I634
I214
tp1279
a(I634
I214
I634
I210
tp1280
a(I634
I210
I635
I208
tp1281
a(I635
I208
I636
I205
tp1282
a(I636
I205
I638
I203
tp1283
a(I638
I203
I639
I202
tp1284
a(I639
I202
I639
I201
tp1285
a(I639
I201
I640
I200
tp1286
a(I640
I200
I641
I199
tp1287
a(I641
I199
I642
I198
tp1288
a(I642
I198
I643
I198
tp1289
a(I643
I198
I644
I198
tp1290
a(I644
I198
I644
I197
tp1291
a(I644
I197
I645
I197
tp1292
a(I645
I197
I646
I197
tp1293
a(I646
I197
I647
I196
tp1294
a(I647
I196
I649
I196
tp1295
a(I649
I196
I650
I196
tp1296
a(I650
I196
I651
I196
tp1297
a(I651
I196
I653
I196
tp1298
a(I653
I196
I653
I195
tp1299
a(I653
I195
I654
I195
tp1300
a(I654
I195
I655
I195
tp1301
a(I655
I195
I656
I195
tp1302
a(I656
I195
I657
I195
tp1303
a(I657
I195
I658
I195
tp1304
a(I658
I195
I659
I196
tp1305
a(I659
I196
I659
I197
tp1306
a(I659
I197
I658
I198
tp1307
a(I658
I198
I658
I199
tp1308
a(I658
I199
I657
I199
tp1309
a(I657
I199
I657
I200
tp1310
a(I657
I200
I656
I201
tp1311
a(I656
I201
I655
I202
tp1312
a(I655
I202
I655
I203
tp1313
a(I655
I203
I655
I204
tp1314
a(I655
I204
I655
I205
tp1315
a(I655
I205
I655
I206
tp1316
a(I655
I206
I655
I207
tp1317
a(I655
I207
I655
I208
tp1318
a(I655
I208
I655
I209
tp1319
a(I655
I209
I655
I210
tp1320
a(I655
I210
I655
I211
tp1321
a(I655
I211
I655
I212
tp1322
a(I655
I212
I656
I212
tp1323
a(I656
I212
I656
I213
tp1324
a(I656
I213
I656
I215
tp1325
a(I656
I215
I657
I216
tp1326
a(I657
I216
I657
I217
tp1327
a(I657
I217
I657
I218
tp1328
a(I657
I218
I658
I218
tp1329
a(I658
I218
I658
I219
tp1330
a(I658
I219
I658
I220
tp1331
a(I658
I220
I658
I221
tp1332
a(I658
I221
I658
I222
tp1333
a(I658
I222
I658
I223
tp1334
a(I658
I223
I658
I224
tp1335
a(I658
I224
I658
I225
tp1336
a(I658
I225
I658
I226
tp1337
a(I658
I226
I658
I227
tp1338
a(I658
I227
I658
I228
tp1339
a(I658
I228
I658
I229
tp1340
a(I658
I229
I658
I230
tp1341
a(I658
I230
I658
I231
tp1342
a(I658
I231
I657
I231
tp1343
a(I657
I231
I656
I231
tp1344
a(I656
I231
I655
I231
tp1345
a(I655
I231
I654
I231
tp1346
a(I654
I231
I652
I231
tp1347
a(I652
I231
I651
I231
tp1348
a(I651
I231
I650
I231
tp1349
a(I650
I231
I649
I230
tp1350
a(I649
I230
I648
I230
tp1351
a(I648
I230
I647
I229
tp1352
a(I647
I229
I646
I229
tp1353
a(I646
I229
I645
I228
tp1354
a(I645
I228
I644
I228
tp1355
a(I644
I228
I644
I227
tp1356
a(I644
I227
I644
I226
tp1357
a(I644
I226
I644
I225
tp1358
a(I644
I225
I644
I224
tp1359
a(I644
I224
I644
I223
tp1360
a(I644
I223
I644
I222
tp1361
a(I644
I222
I645
I222
tp1362
a(I645
I222
I646
I221
tp1363
a(I646
I221
I647
I221
tp1364
a(I647
I221
I648
I221
tp1365
a(I648
I221
I649
I221
tp1366
a(I649
I221
I650
I221
tp1367
a(I650
I221
I651
I221
tp1368
a(I651
I221
I653
I220
tp1369
a(I653
I220
I654
I220
tp1370
a(I654
I220
I655
I220
tp1371
a(I655
I220
I656
I220
tp1372
a(I656
I220
I657
I220
tp1373
a(I657
I220
I658
I220
tp1374
a(I658
I220
I660
I220
tp1375
a(I660
I220
I662
I220
tp1376
a(I662
I220
I665
I220
tp1377
a(I665
I220
I666
I220
tp1378
a(I666
I220
I668
I220
tp1379
a(I668
I220
I669
I220
tp1380
a(I669
I220
I670
I220
tp1381
a(I670
I220
I671
I220
tp1382
a(I671
I220
I672
I220
tp1383
a(I672
I220
I672
I221
tp1384
a(I672
I221
I672
I222
tp1385
a(I672
I222
I672
I223
tp1386
a(I672
I223
I672
I224
tp1387
a(I672
I224
I672
I225
tp1388
a(I672
I225
I672
I226
tp1389
atp1390
a(g2
I1
(lp1391
(I702
I184
I701
I184
tp1392
a(I701
I184
I700
I184
tp1393
a(I700
I184
I699
I184
tp1394
a(I699
I184
I699
I185
tp1395
a(I699
I185
I698
I185
tp1396
a(I698
I185
I698
I186
tp1397
a(I698
I186
I697
I187
tp1398
a(I697
I187
I697
I188
tp1399
a(I697
I188
I697
I189
tp1400
a(I697
I189
I697
I190
tp1401
a(I697
I190
I697
I191
tp1402
a(I697
I191
I697
I195
tp1403
a(I697
I195
I697
I196
tp1404
a(I697
I196
I697
I197
tp1405
a(I697
I197
I697
I198
tp1406
a(I697
I198
I697
I200
tp1407
a(I697
I200
I697
I202
tp1408
a(I697
I202
I697
I205
tp1409
a(I697
I205
I697
I207
tp1410
a(I697
I207
I697
I208
tp1411
a(I697
I208
I697
I209
tp1412
a(I697
I209
I698
I209
tp1413
a(I698
I209
I698
I208
tp1414
a(I698
I208
I698
I207
tp1415
a(I698
I207
I698
I206
tp1416
a(I698
I206
I698
I205
tp1417
a(I698
I205
I698
I204
tp1418
a(I698
I204
I698
I203
tp1419
a(I698
I203
I698
I202
tp1420
a(I698
I202
I698
I201
tp1421
a(I698
I201
I699
I201
tp1422
a(I699
I201
I700
I200
tp1423
a(I700
I200
I700
I199
tp1424
a(I700
I199
I701
I198
tp1425
a(I701
I198
I702
I197
tp1426
a(I702
I197
I704
I197
tp1427
a(I704
I197
I704
I196
tp1428
a(I704
I196
I705
I196
tp1429
a(I705
I196
I706
I195
tp1430
a(I706
I195
I707
I195
tp1431
a(I707
I195
I708
I194
tp1432
a(I708
I194
I709
I192
tp1433
a(I709
I192
I710
I192
tp1434
a(I710
I192
I711
I191
tp1435
a(I711
I191
I712
I191
tp1436
a(I712
I191
I714
I190
tp1437
a(I714
I190
I715
I189
tp1438
a(I715
I189
I716
I189
tp1439
a(I716
I189
I717
I189
tp1440
a(I717
I189
I718
I189
tp1441
a(I718
I189
I719
I189
tp1442
a(I719
I189
I721
I189
tp1443
a(I721
I189
I720
I189
tp1444
a(I720
I189
I720
I190
tp1445
a(I720
I190
I720
I191
tp1446
a(I720
I191
I721
I191
tp1447
a(I721
I191
I721
I192
tp1448
a(I721
I192
I721
I193
tp1449
a(I721
I193
I721
I195
tp1450
a(I721
I195
I721
I196
tp1451
a(I721
I196
I721
I197
tp1452
a(I721
I197
I721
I198
tp1453
a(I721
I198
I721
I199
tp1454
a(I721
I199
I721
I200
tp1455
a(I721
I200
I720
I201
tp1456
a(I720
I201
I720
I202
tp1457
a(I720
I202
I719
I203
tp1458
a(I719
I203
I719
I204
tp1459
a(I719
I204
I718
I205
tp1460
a(I718
I205
I718
I206
tp1461
a(I718
I206
I717
I206
tp1462
a(I717
I206
I717
I207
tp1463
a(I717
I207
I716
I207
tp1464
a(I716
I207
I716
I208
tp1465
a(I716
I208
I715
I208
tp1466
a(I715
I208
I714
I208
tp1467
a(I714
I208
I713
I208
tp1468
a(I713
I208
I712
I208
tp1469
a(I712
I208
I711
I208
tp1470
a(I711
I208
I710
I208
tp1471
a(I710
I208
I709
I208
tp1472
a(I709
I208
I708
I208
tp1473
a(I708
I208
I707
I208
tp1474
a(I707
I208
I706
I207
tp1475
a(I706
I207
I705
I207
tp1476
a(I705
I207
I705
I206
tp1477
a(I705
I206
I704
I206
tp1478
a(I704
I206
I704
I205
tp1479
a(I704
I205
I704
I204
tp1480
a(I704
I204
I705
I204
tp1481
a(I705
I204
I705
I203
tp1482
a(I705
I203
I706
I203
tp1483
a(I706
I203
I707
I203
tp1484
a(I707
I203
I707
I202
tp1485
a(I707
I202
I707
I201
tp1486
a(I707
I201
I707
I200
tp1487
a(I707
I200
I708
I200
tp1488
a(I708
I200
I709
I200
tp1489
a(I709
I200
I710
I200
tp1490
a(I710
I200
I710
I199
tp1491
a(I710
I199
I710
I198
tp1492
a(I710
I198
I710
I197
tp1493
a(I710
I197
I710
I196
tp1494
a(I710
I196
I709
I196
tp1495
a(I709
I196
I708
I196
tp1496
a(I708
I196
I707
I196
tp1497
a(I707
I196
I706
I196
tp1498
a(I706
I196
I706
I197
tp1499
a(I706
I197
I706
I198
tp1500
a(I706
I198
I706
I199
tp1501
a(I706
I199
I707
I200
tp1502
a(I707
I200
I707
I201
tp1503
a(I707
I201
I707
I202
tp1504
a(I707
I202
I707
I204
tp1505
a(I707
I204
I707
I205
tp1506
a(I707
I205
I708
I206
tp1507
a(I708
I206
I708
I207
tp1508
a(I708
I207
I707
I207
tp1509
a(I707
I207
I706
I207
tp1510
a(I706
I207
I705
I207
tp1511
a(I705
I207
I705
I208
tp1512
a(I705
I208
I704
I208
tp1513
a(I704
I208
I703
I208
tp1514
a(I703
I208
I702
I209
tp1515
a(I702
I209
I701
I210
tp1516
a(I701
I210
I700
I211
tp1517
a(I700
I211
I698
I212
tp1518
a(I698
I212
I697
I214
tp1519
a(I697
I214
I696
I215
tp1520
a(I696
I215
I694
I216
tp1521
a(I694
I216
I694
I217
tp1522
a(I694
I217
I694
I218
tp1523
a(I694
I218
I694
I219
tp1524
a(I694
I219
I694
I220
tp1525
a(I694
I220
I694
I221
tp1526
a(I694
I221
I694
I222
tp1527
a(I694
I222
I694
I223
tp1528
a(I694
I223
I695
I223
tp1529
a(I695
I223
I695
I224
tp1530
a(I695
I224
I696
I225
tp1531
a(I696
I225
I697
I226
tp1532
a(I697
I226
I698
I226
tp1533
a(I698
I226
I698
I227
tp1534
a(I698
I227
I699
I227
tp1535
a(I699
I227
I700
I227
tp1536
a(I700
I227
I700
I228
tp1537
a(I700
I228
I701
I228
tp1538
a(I701
I228
I701
I227
tp1539
a(I701
I227
I701
I226
tp1540
a(I701
I226
I701
I225
tp1541
a(I701
I225
I701
I224
tp1542
a(I701
I224
I701
I223
tp1543
a(I701
I223
I701
I222
tp1544
a(I701
I222
I702
I221
tp1545
a(I702
I221
I704
I220
tp1546
a(I704
I220
I705
I220
tp1547
a(I705
I220
I706
I219
tp1548
a(I706
I219
I707
I219
tp1549
a(I707
I219
I708
I219
tp1550
a(I708
I219
I710
I218
tp1551
a(I710
I218
I712
I218
tp1552
a(I712
I218
I715
I216
tp1553
a(I715
I216
I716
I216
tp1554
a(I716
I216
I717
I216
tp1555
a(I717
I216
I718
I216
tp1556
a(I718
I216
I719
I215
tp1557
a(I719
I215
I720
I215
tp1558
a(I720
I215
I721
I215
tp1559
a(I721
I215
I722
I215
tp1560
a(I722
I215
I723
I215
tp1561
a(I723
I215
I724
I214
tp1562
a(I724
I214
I727
I214
tp1563
a(I727
I214
I728
I214
tp1564
a(I728
I214
I730
I214
tp1565
a(I730
I214
I731
I214
tp1566
a(I731
I214
I732
I214
tp1567
a(I732
I214
I733
I214
tp1568
a(I733
I214
I734
I214
tp1569
a(I734
I214
I735
I214
tp1570
a(I735
I214
I736
I214
tp1571
a(I736
I214
I736
I215
tp1572
a(I736
I215
I736
I216
tp1573
a(I736
I216
I736
I218
tp1574
a(I736
I218
I736
I219
tp1575
a(I736
I219
I736
I220
tp1576
a(I736
I220
I736
I221
tp1577
a(I736
I221
I736
I222
tp1578
a(I736
I222
I736
I223
tp1579
a(I736
I223
I736
I224
tp1580
a(I736
I224
I736
I225
tp1581
a(I736
I225
I736
I226
tp1582
a(I736
I226
I736
I227
tp1583
a(I736
I227
I735
I227
tp1584
a(I735
I227
I735
I228
tp1585
a(I735
I228
I735
I229
tp1586
a(I735
I229
I734
I229
tp1587
a(I734
I229
I733
I230
tp1588
a(I733
I230
I732
I230
tp1589
a(I732
I230
I731
I230
tp1590
a(I731
I230
I731
I231
tp1591
a(I731
I231
I730
I231
tp1592
a(I730
I231
I729
I231
tp1593
a(I729
I231
I726
I232
tp1594
a(I726
I232
I725
I232
tp1595
a(I725
I232
I724
I232
tp1596
a(I724
I232
I723
I232
tp1597
a(I723
I232
I722
I232
tp1598
a(I722
I232
I721
I232
tp1599
a(I721
I232
I720
I232
tp1600
a(I720
I232
I719
I232
tp1601
a(I719
I232
I718
I231
tp1602
a(I718
I231
I718
I229
tp1603
a(I718
I229
I718
I228
tp1604
a(I718
I228
I718
I226
tp1605
a(I718
I226
I717
I225
tp1606
a(I717
I225
I717
I224
tp1607
a(I717
I224
I717
I223
tp1608
a(I717
I223
I717
I221
tp1609
a(I717
I221
I717
I220
tp1610
a(I717
I220
I717
I219
tp1611
a(I717
I219
I717
I218
tp1612
a(I717
I218
I717
I217
tp1613
a(I717
I217
I717
I216
tp1614
a(I717
I216
I717
I215
tp1615
a(I717
I215
I717
I213
tp1616
a(I717
I213
I717
I212
tp1617
a(I717
I212
I717
I211
tp1618
a(I717
I211
I717
I210
tp1619
a(I717
I210
I717
I209
tp1620
a(I717
I209
I717
I210
tp1621
a(I717
I210
I717
I211
tp1622
a(I717
I211
I717
I213
tp1623
a(I717
I213
I717
I214
tp1624
a(I717
I214
I717
I216
tp1625
a(I717
I216
I717
I217
tp1626
a(I717
I217
I717
I220
tp1627
a(I717
I220
I717
I221
tp1628
a(I717
I221
I717
I222
tp1629
a(I717
I222
I717
I223
tp1630
a(I717
I223
I717
I224
tp1631
a(I717
I224
I718
I224
tp1632
a(I718
I224
I719
I224
tp1633
a(I719
I224
I720
I224
tp1634
a(I720
I224
I721
I224
tp1635
a(I721
I224
I722
I224
tp1636
a(I722
I224
I723
I224
tp1637
a(I723
I224
I724
I224
tp1638
a(I724
I224
I723
I224
tp1639
a(I723
I224
I723
I223
tp1640
a(I723
I223
I722
I223
tp1641
a(I722
I223
I721
I223
tp1642
a(I721
I223
I720
I223
tp1643
a(I720
I223
I719
I222
tp1644
a(I719
I222
I718
I222
tp1645
a(I718
I222
I717
I221
tp1646
atp1647
a(g2
I1
(lp1648
(I681
I204
I682
I204
tp1649
a(I682
I204
I682
I205
tp1650
a(I682
I205
I683
I207
tp1651
a(I683
I207
I683
I208
tp1652
a(I683
I208
I684
I210
tp1653
a(I684
I210
I684
I211
tp1654
a(I684
I211
I685
I213
tp1655
a(I685
I213
I685
I216
tp1656
a(I685
I216
I685
I218
tp1657
a(I685
I218
I685
I219
tp1658
a(I685
I219
I685
I221
tp1659
a(I685
I221
I685
I222
tp1660
a(I685
I222
I686
I223
tp1661
a(I686
I223
I686
I224
tp1662
a(I686
I224
I686
I225
tp1663
a(I686
I225
I686
I226
tp1664
a(I686
I226
I686
I228
tp1665
a(I686
I228
I686
I229
tp1666
a(I686
I229
I686
I230
tp1667
a(I686
I230
I687
I230
tp1668
a(I687
I230
I687
I231
tp1669
a(I687
I231
I688
I231
tp1670
a(I688
I231
I689
I231
tp1671
a(I689
I231
I690
I232
tp1672
a(I690
I232
I692
I233
tp1673
a(I692
I233
I693
I234
tp1674
a(I693
I234
I694
I235
tp1675
a(I694
I235
I695
I235
tp1676
a(I695
I235
I696
I235
tp1677
a(I696
I235
I697
I235
tp1678
a(I697
I235
I698
I236
tp1679
a(I698
I236
I699
I236
tp1680
a(I699
I236
I700
I236
tp1681
a(I700
I236
I701
I236
tp1682
a(I701
I236
I702
I237
tp1683
a(I702
I237
I703
I238
tp1684
a(I703
I238
I704
I238
tp1685
a(I704
I238
I706
I239
tp1686
a(I706
I239
I707
I239
tp1687
a(I707
I239
I709
I240
tp1688
a(I709
I240
I711
I240
tp1689
a(I711
I240
I713
I240
tp1690
a(I713
I240
I715
I240
tp1691
a(I715
I240
I718
I240
tp1692
a(I718
I240
I720
I241
tp1693
a(I720
I241
I724
I241
tp1694
a(I724
I241
I728
I241
tp1695
a(I728
I241
I731
I241
tp1696
a(I731
I241
I733
I241
tp1697
a(I733
I241
I734
I241
tp1698
a(I734
I241
I736
I241
tp1699
a(I736
I241
I737
I241
tp1700
a(I737
I241
I738
I241
tp1701
a(I738
I241
I739
I241
tp1702
a(I739
I241
I740
I241
tp1703
a(I740
I241
I743
I241
tp1704
a(I743
I241
I744
I241
tp1705
a(I744
I241
I745
I240
tp1706
a(I745
I240
I746
I240
tp1707
a(I746
I240
I747
I240
tp1708
a(I747
I240
I746
I239
tp1709
a(I746
I239
I746
I238
tp1710
a(I746
I238
I743
I238
tp1711
atp1712
a(g2
I1
(lp1713
(I683
I199
I683
I198
tp1714
a(I683
I198
I682
I198
tp1715
a(I682
I198
I681
I198
tp1716
a(I681
I198
I681
I197
tp1717
a(I681
I197
I680
I197
tp1718
a(I680
I197
I681
I197
tp1719
a(I681
I197
I681
I198
tp1720
atp1721
a(g2
I1
(lp1722
(I590
I288
I590
I289
tp1723
a(I590
I289
I590
I290
tp1724
a(I590
I290
I590
I293
tp1725
a(I590
I293
I590
I295
tp1726
a(I590
I295
I590
I296
tp1727
a(I590
I296
I590
I298
tp1728
a(I590
I298
I590
I301
tp1729
a(I590
I301
I590
I302
tp1730
a(I590
I302
I590
I304
tp1731
a(I590
I304
I590
I305
tp1732
a(I590
I305
I590
I307
tp1733
a(I590
I307
I590
I308
tp1734
a(I590
I308
I591
I308
tp1735
a(I591
I308
I591
I309
tp1736
a(I591
I309
I592
I309
tp1737
a(I592
I309
I592
I307
tp1738
a(I592
I307
I592
I306
tp1739
a(I592
I306
I592
I304
tp1740
a(I592
I304
I592
I301
tp1741
a(I592
I301
I592
I299
tp1742
a(I592
I299
I592
I297
tp1743
a(I592
I297
I592
I294
tp1744
atp1745
a(g2
I1
(lp1746
(I592
I287
I593
I287
tp1747
a(I593
I287
I594
I287
tp1748
a(I594
I287
I595
I286
tp1749
a(I595
I286
I596
I286
tp1750
a(I596
I286
I596
I285
tp1751
a(I596
I285
I597
I285
tp1752
a(I597
I285
I597
I284
tp1753
a(I597
I284
I598
I284
tp1754
a(I598
I284
I599
I284
tp1755
a(I599
I284
I599
I283
tp1756
a(I599
I283
I600
I282
tp1757
a(I600
I282
I601
I282
tp1758
a(I601
I282
I602
I282
tp1759
a(I602
I282
I603
I280
tp1760
a(I603
I280
I604
I280
tp1761
a(I604
I280
I605
I280
tp1762
a(I605
I280
I607
I279
tp1763
a(I607
I279
I608
I279
tp1764
a(I608
I279
I608
I281
tp1765
a(I608
I281
I608
I282
tp1766
a(I608
I282
I608
I283
tp1767
a(I608
I283
I608
I284
tp1768
a(I608
I284
I608
I285
tp1769
a(I608
I285
I608
I286
tp1770
a(I608
I286
I608
I287
tp1771
a(I608
I287
I608
I288
tp1772
a(I608
I288
I608
I289
tp1773
a(I608
I289
I608
I290
tp1774
a(I608
I290
I608
I291
tp1775
a(I608
I291
I608
I292
tp1776
a(I608
I292
I608
I293
tp1777
a(I608
I293
I608
I294
tp1778
a(I608
I294
I606
I294
tp1779
a(I606
I294
I606
I295
tp1780
a(I606
I295
I606
I296
tp1781
a(I606
I296
I606
I297
tp1782
a(I606
I297
I606
I298
tp1783
a(I606
I298
I606
I299
tp1784
a(I606
I299
I606
I300
tp1785
a(I606
I300
I606
I302
tp1786
a(I606
I302
I606
I303
tp1787
a(I606
I303
I606
I304
tp1788
a(I606
I304
I605
I304
tp1789
a(I605
I304
I604
I304
tp1790
a(I604
I304
I603
I304
tp1791
a(I603
I304
I603
I303
tp1792
a(I603
I303
I603
I301
tp1793
a(I603
I301
I602
I301
tp1794
a(I602
I301
I602
I302
tp1795
a(I602
I302
I602
I303
tp1796
a(I602
I303
I602
I304
tp1797
a(I602
I304
I602
I305
tp1798
a(I602
I305
I601
I307
tp1799
a(I601
I307
I601
I308
tp1800
a(I601
I308
I600
I309
tp1801
a(I600
I309
I600
I310
tp1802
a(I600
I310
I599
I311
tp1803
a(I599
I311
I599
I312
tp1804
a(I599
I312
I597
I313
tp1805
a(I597
I313
I597
I316
tp1806
a(I597
I316
I595
I318
tp1807
a(I595
I318
I595
I319
tp1808
a(I595
I319
I594
I320
tp1809
a(I594
I320
I594
I321
tp1810
a(I594
I321
I594
I322
tp1811
a(I594
I322
I594
I323
tp1812
a(I594
I323
I593
I323
tp1813
a(I593
I323
I593
I325
tp1814
a(I593
I325
I593
I326
tp1815
a(I593
I326
I593
I324
tp1816
a(I593
I324
I594
I323
tp1817
a(I594
I323
I594
I322
tp1818
a(I594
I322
I594
I320
tp1819
atp1820
a(g2
I1
(lp1821
(I597
I318
I598
I318
tp1822
a(I598
I318
I598
I319
tp1823
a(I598
I319
I599
I319
tp1824
a(I599
I319
I600
I320
tp1825
a(I600
I320
I601
I320
tp1826
a(I601
I320
I602
I321
tp1827
a(I602
I321
I602
I322
tp1828
a(I602
I322
I603
I322
tp1829
a(I603
I322
I604
I322
tp1830
a(I604
I322
I605
I323
tp1831
a(I605
I323
I606
I323
tp1832
a(I606
I323
I607
I323
tp1833
a(I607
I323
I608
I324
tp1834
a(I608
I324
I609
I324
tp1835
a(I609
I324
I610
I324
tp1836
a(I610
I324
I611
I324
tp1837
a(I611
I324
I612
I324
tp1838
a(I612
I324
I614
I324
tp1839
a(I614
I324
I615
I324
tp1840
a(I615
I324
I616
I324
tp1841
a(I616
I324
I617
I324
tp1842
a(I617
I324
I618
I324
tp1843
a(I618
I324
I619
I324
tp1844
a(I619
I324
I619
I323
tp1845
a(I619
I323
I620
I323
tp1846
a(I620
I323
I620
I322
tp1847
a(I620
I322
I620
I321
tp1848
a(I620
I321
I621
I317
tp1849
atp1850
a(g2
I1
(lp1851
(I639
I277
I639
I276
tp1852
a(I639
I276
I640
I276
tp1853
a(I640
I276
I641
I276
tp1854
a(I641
I276
I643
I276
tp1855
a(I643
I276
I644
I276
tp1856
a(I644
I276
I645
I276
tp1857
a(I645
I276
I646
I276
tp1858
a(I646
I276
I647
I276
tp1859
a(I647
I276
I648
I276
tp1860
a(I648
I276
I649
I276
tp1861
a(I649
I276
I650
I276
tp1862
a(I650
I276
I651
I276
tp1863
a(I651
I276
I652
I276
tp1864
a(I652
I276
I653
I276
tp1865
a(I653
I276
I654
I276
tp1866
a(I654
I276
I654
I277
tp1867
a(I654
I277
I654
I278
tp1868
a(I654
I278
I654
I280
tp1869
a(I654
I280
I653
I281
tp1870
a(I653
I281
I652
I284
tp1871
a(I652
I284
I651
I285
tp1872
a(I651
I285
I650
I286
tp1873
a(I650
I286
I647
I288
tp1874
a(I647
I288
I646
I289
tp1875
a(I646
I289
I644
I290
tp1876
a(I644
I290
I640
I293
tp1877
a(I640
I293
I636
I296
tp1878
a(I636
I296
I630
I299
tp1879
a(I630
I299
I626
I302
tp1880
a(I626
I302
I623
I303
tp1881
a(I623
I303
I621
I304
tp1882
a(I621
I304
I618
I307
tp1883
a(I618
I307
I617
I307
tp1884
a(I617
I307
I617
I308
tp1885
a(I617
I308
I616
I308
tp1886
a(I616
I308
I616
I309
tp1887
a(I616
I309
I617
I309
tp1888
a(I617
I309
I618
I309
tp1889
a(I618
I309
I620
I309
tp1890
a(I620
I309
I621
I309
tp1891
a(I621
I309
I622
I309
tp1892
a(I622
I309
I623
I309
tp1893
a(I623
I309
I626
I309
tp1894
a(I626
I309
I628
I307
tp1895
a(I628
I307
I632
I307
tp1896
a(I632
I307
I638
I306
tp1897
a(I638
I306
I648
I304
tp1898
a(I648
I304
I654
I304
tp1899
a(I654
I304
I658
I304
tp1900
a(I658
I304
I662
I304
tp1901
a(I662
I304
I664
I304
tp1902
a(I664
I304
I666
I303
tp1903
a(I666
I303
I667
I303
tp1904
a(I667
I303
I668
I303
tp1905
a(I668
I303
I667
I302
tp1906
a(I667
I302
I666
I301
tp1907
a(I666
I301
I665
I301
tp1908
a(I665
I301
I664
I300
tp1909
a(I664
I300
I662
I299
tp1910
a(I662
I299
I661
I298
tp1911
a(I661
I298
I657
I295
tp1912
a(I657
I295
I655
I295
tp1913
a(I655
I295
I652
I294
tp1914
a(I652
I294
I650
I291
tp1915
a(I650
I291
I649
I291
tp1916
a(I649
I291
I648
I290
tp1917
a(I648
I290
I647
I290
tp1918
a(I647
I290
I647
I291
tp1919
a(I647
I291
I647
I292
tp1920
a(I647
I292
I647
I293
tp1921
a(I647
I293
I647
I295
tp1922
a(I647
I295
I647
I297
tp1923
a(I647
I297
I647
I299
tp1924
a(I647
I299
I647
I301
tp1925
a(I647
I301
I647
I304
tp1926
a(I647
I304
I647
I306
tp1927
a(I647
I306
I647
I309
tp1928
a(I647
I309
I647
I310
tp1929
a(I647
I310
I647
I312
tp1930
a(I647
I312
I647
I313
tp1931
a(I647
I313
I647
I314
tp1932
a(I647
I314
I647
I315
tp1933
a(I647
I315
I647
I316
tp1934
a(I647
I316
I647
I317
tp1935
a(I647
I317
I646
I317
tp1936
a(I646
I317
I644
I317
tp1937
a(I644
I317
I642
I317
tp1938
a(I642
I317
I640
I317
tp1939
a(I640
I317
I637
I314
tp1940
a(I637
I314
I631
I311
tp1941
a(I631
I311
I627
I310
tp1942
a(I627
I310
I626
I309
tp1943
a(I626
I309
I625
I309
tp1944
a(I625
I309
I624
I309
tp1945
a(I624
I309
I625
I309
tp1946
a(I625
I309
I627
I309
tp1947
a(I627
I309
I628
I309
tp1948
a(I628
I309
I629
I309
tp1949
a(I629
I309
I631
I309
tp1950
a(I631
I309
I631
I308
tp1951
a(I631
I308
I633
I308
tp1952
a(I633
I308
I635
I307
tp1953
a(I635
I307
I638
I305
tp1954
a(I638
I305
I639
I304
tp1955
a(I639
I304
I642
I303
tp1956
a(I642
I303
I643
I303
tp1957
a(I643
I303
I646
I302
tp1958
a(I646
I302
I647
I301
tp1959
a(I647
I301
I648
I301
tp1960
a(I648
I301
I649
I300
tp1961
a(I649
I300
I649
I299
tp1962
a(I649
I299
I650
I298
tp1963
a(I650
I298
I650
I297
tp1964
a(I650
I297
I650
I296
tp1965
a(I650
I296
I650
I295
tp1966
a(I650
I295
I650
I292
tp1967
a(I650
I292
I651
I290
tp1968
a(I651
I290
I651
I287
tp1969
a(I651
I287
I651
I286
tp1970
a(I651
I286
I652
I286
tp1971
a(I652
I286
I653
I286
tp1972
a(I653
I286
I653
I289
tp1973
a(I653
I289
I654
I290
tp1974
a(I654
I290
I654
I292
tp1975
a(I654
I292
I656
I294
tp1976
a(I656
I294
I657
I299
tp1977
a(I657
I299
I660
I301
tp1978
a(I660
I301
I661
I305
tp1979
a(I661
I305
I662
I306
tp1980
a(I662
I306
I663
I309
tp1981
a(I663
I309
I664
I310
tp1982
a(I664
I310
I665
I311
tp1983
a(I665
I311
I666
I311
tp1984
a(I666
I311
I667
I313
tp1985
a(I667
I313
I669
I314
tp1986
a(I669
I314
I670
I315
tp1987
a(I670
I315
I671
I316
tp1988
a(I671
I316
I672
I317
tp1989
a(I672
I317
I673
I319
tp1990
a(I673
I319
I675
I321
tp1991
a(I675
I321
I678
I323
tp1992
a(I678
I323
I679
I323
tp1993
a(I679
I323
I681
I324
tp1994
a(I681
I324
I682
I324
tp1995
a(I682
I324
I683
I326
tp1996
a(I683
I326
I684
I327
tp1997
a(I684
I327
I686
I327
tp1998
a(I686
I327
I686
I328
tp1999
a(I686
I328
I687
I328
tp2000
a(I687
I328
I688
I328
tp2001
a(I688
I328
I688
I325
tp2002
a(I688
I325
I688
I323
tp2003
a(I688
I323
I688
I321
tp2004
a(I688
I321
I688
I318
tp2005
a(I688
I318
I688
I316
tp2006
a(I688
I316
I688
I314
tp2007
a(I688
I314
I688
I313
tp2008
atp2009
a(g2
I1
(lp2010
(I682
I306
I681
I306
tp2011
a(I681
I306
I680
I306
tp2012
a(I680
I306
I679
I306
tp2013
a(I679
I306
I678
I307
tp2014
a(I678
I307
I677
I310
tp2015
a(I677
I310
I676
I310
tp2016
a(I676
I310
I675
I311
tp2017
a(I675
I311
I674
I312
tp2018
a(I674
I312
I671
I314
tp2019
a(I671
I314
I670
I315
tp2020
a(I670
I315
I669
I316
tp2021
a(I669
I316
I668
I316
tp2022
a(I668
I316
I667
I316
tp2023
a(I667
I316
I667
I314
tp2024
a(I667
I314
I667
I313
tp2025
a(I667
I313
I666
I309
tp2026
a(I666
I309
I666
I305
tp2027
atp2028
a(g2
I1
(lp2029
(I661
I265
I662
I265
tp2030
a(I662
I265
I663
I265
tp2031
a(I663
I265
I666
I266
tp2032
a(I666
I266
I668
I267
tp2033
a(I668
I267
I671
I272
tp2034
a(I671
I272
I674
I274
tp2035
a(I674
I274
I675
I275
tp2036
a(I675
I275
I676
I276
tp2037
a(I676
I276
I678
I276
tp2038
a(I678
I276
I678
I277
tp2039
a(I678
I277
I677
I277
tp2040
a(I677
I277
I677
I276
tp2041
atp2042
a(g2
I1
(ltp2043
a(g2
I1
(ltp2044
a(g2
I1
(ltp2045
a.