(lp1
(S'Black'
p2
I1
(lp3
(I310
I329
I310
I328
tp4
a(I310
I328
I309
I327
tp5
a(I309
I327
I309
I326
tp6
a(I309
I326
I309
I323
tp7
a(I309
I323
I309
I318
tp8
a(I309
I318
I309
I311
tp9
a(I309
I311
I309
I301
tp10
a(I309
I301
I310
I288
tp11
a(I310
I288
I310
I273
tp12
a(I310
I273
I312
I258
tp13
a(I312
I258
I313
I243
tp14
a(I313
I243
I313
I228
tp15
a(I313
I228
I317
I215
tp16
a(I317
I215
I319
I207
tp17
a(I319
I207
I322
I199
tp18
a(I322
I199
I322
I193
tp19
a(I322
I193
I327
I187
tp20
a(I327
I187
I329
I183
tp21
a(I329
I183
I336
I177
tp22
a(I336
I177
I342
I172
tp23
a(I342
I172
I350
I169
tp24
a(I350
I169
I357
I164
tp25
a(I357
I164
I363
I161
tp26
a(I363
I161
I371
I159
tp27
a(I371
I159
I377
I158
tp28
a(I377
I158
I384
I158
tp29
a(I384
I158
I390
I157
tp30
a(I390
I157
I395
I157
tp31
a(I395
I157
I399
I157
tp32
a(I399
I157
I405
I157
tp33
a(I405
I157
I407
I157
tp34
a(I407
I157
I409
I157
tp35
atp36
a(g2
I1
(lp37
(I203
I190
I207
I190
tp38
a(I207
I190
I213
I190
tp39
a(I213
I190
I218
I190
tp40
a(I218
I190
I224
I192
tp41
a(I224
I192
I234
I193
tp42
a(I234
I193
I243
I197
tp43
a(I243
I197
I251
I198
tp44
a(I251
I198
I259
I202
tp45
a(I259
I202
I267
I205
tp46
a(I267
I205
I276
I208
tp47
a(I276
I208
I284
I212
tp48
a(I284
I212
I295
I217
tp49
a(I295
I217
I304
I222
tp50
a(I304
I222
I312
I227
tp51
a(I312
I227
I321
I233
tp52
a(I321
I233
I327
I236
tp53
a(I327
I236
I336
I243
tp54
a(I336
I243
I341
I249
tp55
a(I341
I249
I349
I256
tp56
a(I349
I256
I356
I261
tp57
a(I356
I261
I360
I265
tp58
a(I360
I265
I364
I269
tp59
a(I364
I269
I367
I272
tp60
a(I367
I272
I371
I276
tp61
a(I371
I276
I374
I280
tp62
a(I374
I280
I377
I285
tp63
a(I377
I285
I379
I289
tp64
a(I379
I289
I382
I291
tp65
a(I382
I291
I383
I294
tp66
a(I383
I294
I385
I296
tp67
a(I385
I296
I386
I299
tp68
a(I386
I299
I387
I300
tp69
a(I387
I300
I388
I304
tp70
a(I388
I304
I389
I308
tp71
a(I389
I308
I389
I310
tp72
a(I389
I310
I389
I311
tp73
a(I389
I311
I391
I313
tp74
a(I391
I313
I391
I316
tp75
a(I391
I316
I392
I317
tp76
a(I392
I317
I392
I318
tp77
a(I392
I318
I392
I319
tp78
a(I392
I319
I392
I320
tp79
a(I392
I320
I392
I321
tp80
a(I392
I321
I392
I322
tp81
a(I392
I322
I392
I323
tp82
a(I392
I323
I392
I324
tp83
atp84
a(g2
I1
(lp85
(I274
I123
I273
I123
tp86
a(I273
I123
I272
I124
tp87
a(I272
I124
I271
I125
tp88
a(I271
I125
I270
I126
tp89
a(I270
I126
I269
I126
tp90
a(I269
I126
I269
I127
tp91
a(I269
I127
I268
I128
tp92
a(I268
I128
I268
I129
tp93
a(I268
I129
I268
I130
tp94
a(I268
I130
I268
I131
tp95
a(I268
I131
I268
I132
tp96
a(I268
I132
I267
I133
tp97
a(I267
I133
I267
I134
tp98
a(I267
I134
I267
I135
tp99
a(I267
I135
I267
I136
tp100
a(I267
I136
I267
I139
tp101
a(I267
I139
I267
I140
tp102
a(I267
I140
I268
I141
tp103
a(I268
I141
I269
I142
tp104
a(I269
I142
I269
I143
tp105
a(I269
I143
I270
I144
tp106
a(I270
I144
I270
I145
tp107
a(I270
I145
I271
I146
tp108
a(I271
I146
I272
I147
tp109
a(I272
I147
I273
I148
tp110
a(I273
I148
I273
I149
tp111
a(I273
I149
I274
I150
tp112
a(I274
I150
I275
I151
tp113
a(I275
I151
I275
I152
tp114
a(I275
I152
I276
I152
tp115
a(I276
I152
I277
I155
tp116
a(I277
I155
I278
I155
tp117
a(I278
I155
I279
I155
tp118
a(I279
I155
I280
I155
tp119
a(I280
I155
I281
I156
tp120
a(I281
I156
I282
I156
tp121
a(I282
I156
I284
I156
tp122
a(I284
I156
I285
I157
tp123
a(I285
I157
I286
I157
tp124
a(I286
I157
I287
I157
tp125
a(I287
I157
I288
I157
tp126
a(I288
I157
I289
I157
tp127
a(I289
I157
I290
I157
tp128
a(I290
I157
I292
I157
tp129
a(I292
I157
I293
I157
tp130
a(I293
I157
I294
I157
tp131
a(I294
I157
I296
I157
tp132
a(I296
I157
I297
I157
tp133
a(I297
I157
I300
I156
tp134
a(I300
I156
I301
I155
tp135
a(I301
I155
I302
I155
tp136
a(I302
I155
I303
I154
tp137
a(I303
I154
I304
I153
tp138
a(I304
I153
I304
I151
tp139
a(I304
I151
I304
I150
tp140
a(I304
I150
I304
I149
tp141
a(I304
I149
I304
I148
tp142
a(I304
I148
I304
I147
tp143
a(I304
I147
I304
I146
tp144
a(I304
I146
I304
I145
tp145
a(I304
I145
I304
I144
tp146
a(I304
I144
I304
I143
tp147
a(I304
I143
I304
I142
tp148
a(I304
I142
I304
I141
tp149
a(I304
I141
I304
I140
tp150
a(I304
I140
I304
I139
tp151
a(I304
I139
I304
I137
tp152
a(I304
I137
I304
I136
tp153
a(I304
I136
I304
I135
tp154
a(I304
I135
I304
I133
tp155
a(I304
I133
I303
I133
tp156
a(I303
I133
I302
I132
tp157
a(I302
I132
I301
I131
tp158
a(I301
I131
I301
I130
tp159
a(I301
I130
I300
I129
tp160
a(I300
I129
I300
I128
tp161
a(I300
I128
I300
I127
tp162
a(I300
I127
I299
I127
tp163
a(I299
I127
I298
I126
tp164
a(I298
I126
I298
I125
tp165
a(I298
I125
I297
I124
tp166
a(I297
I124
I297
I123
tp167
a(I297
I123
I295
I123
tp168
a(I295
I123
I294
I122
tp169
a(I294
I122
I293
I122
tp170
a(I293
I122
I293
I121
tp171
a(I293
I121
I293
I119
tp172
a(I293
I119
I292
I119
tp173
a(I292
I119
I291
I119
tp174
a(I291
I119
I290
I119
tp175
a(I290
I119
I290
I118
tp176
a(I290
I118
I289
I118
tp177
a(I289
I118
I288
I118
tp178
a(I288
I118
I287
I118
tp179
a(I287
I118
I286
I118
tp180
a(I286
I118
I285
I118
tp181
a(I285
I118
I284
I118
tp182
a(I284
I118
I283
I118
tp183
a(I283
I118
I282
I118
tp184
a(I282
I118
I281
I118
tp185
a(I281
I118
I280
I118
tp186
a(I280
I118
I279
I118
tp187
a(I279
I118
I278
I118
tp188
a(I278
I118
I277
I118
tp189
a(I277
I118
I276
I118
tp190
a(I276
I118
I276
I120
tp191
a(I276
I120
I276
I121
tp192
a(I276
I121
I275
I121
tp193
a(I275
I121
I275
I122
tp194
a(I275
I122
I275
I123
tp195
a(I275
I123
I275
I124
tp196
a(I275
I124
I275
I125
tp197
atp198
a(g2
I1
(lp199
(I412
I156
I413
I154
tp200
a(I413
I154
I415
I150
tp201
a(I415
I150
I417
I146
tp202
a(I417
I146
I418
I144
tp203
a(I418
I144
I419
I140
tp204
a(I419
I140
I421
I136
tp205
a(I421
I136
I422
I132
tp206
a(I422
I132
I425
I127
tp207
a(I425
I127
I426
I122
tp208
a(I426
I122
I428
I116
tp209
a(I428
I116
I431
I110
tp210
a(I431
I110
I433
I107
tp211
a(I433
I107
I435
I103
tp212
a(I435
I103
I435
I101
tp213
a(I435
I101
I436
I97
tp214
a(I436
I97
I437
I94
tp215
a(I437
I94
I437
I92
tp216
a(I437
I92
I437
I90
tp217
a(I437
I90
I437
I87
tp218
a(I437
I87
I437
I85
tp219
a(I437
I85
I438
I84
tp220
a(I438
I84
I439
I82
tp221
a(I439
I82
I439
I79
tp222
a(I439
I79
I439
I75
tp223
a(I439
I75
I441
I74
tp224
a(I441
I74
I441
I73
tp225
a(I441
I73
I441
I71
tp226
a(I441
I71
I442
I70
tp227
a(I442
I70
I442
I69
tp228
a(I442
I69
I443
I69
tp229
a(I443
I69
I443
I68
tp230
a(I443
I68
I443
I67
tp231
a(I443
I67
I444
I66
tp232
a(I444
I66
I445
I65
tp233
a(I445
I65
I446
I65
tp234
a(I446
I65
I447
I64
tp235
a(I447
I64
I447
I63
tp236
a(I447
I63
I448
I63
tp237
a(I448
I63
I448
I62
tp238
a(I448
I62
I449
I62
tp239
a(I449
I62
I450
I61
tp240
a(I450
I61
I451
I61
tp241
a(I451
I61
I452
I61
tp242
a(I452
I61
I452
I59
tp243
a(I452
I59
I454
I59
tp244
a(I454
I59
I455
I60
tp245
a(I455
I60
I458
I61
tp246
a(I458
I61
I459
I62
tp247
a(I459
I62
I460
I64
tp248
a(I460
I64
I461
I65
tp249
a(I461
I65
I462
I66
tp250
a(I462
I66
I463
I67
tp251
a(I463
I67
I464
I69
tp252
a(I464
I69
I465
I72
tp253
a(I465
I72
I465
I74
tp254
a(I465
I74
I465
I77
tp255
a(I465
I77
I468
I78
tp256
a(I468
I78
I468
I80
tp257
a(I468
I80
I468
I81
tp258
a(I468
I81
I469
I84
tp259
a(I469
I84
I469
I85
tp260
a(I469
I85
I469
I87
tp261
a(I469
I87
I469
I88
tp262
a(I469
I88
I469
I89
tp263
a(I469
I89
I469
I91
tp264
a(I469
I91
I469
I94
tp265
a(I469
I94
I469
I96
tp266
a(I469
I96
I470
I99
tp267
a(I470
I99
I470
I101
tp268
a(I470
I101
I470
I102
tp269
a(I470
I102
I471
I104
tp270
a(I471
I104
I473
I107
tp271
a(I473
I107
I473
I109
tp272
a(I473
I109
I473
I111
tp273
a(I473
I111
I473
I114
tp274
a(I473
I114
I474
I116
tp275
a(I474
I116
I474
I119
tp276
a(I474
I119
I475
I121
tp277
a(I475
I121
I475
I122
tp278
a(I475
I122
I476
I125
tp279
a(I476
I125
I478
I127
tp280
a(I478
I127
I478
I129
tp281
a(I478
I129
I478
I132
tp282
a(I478
I132
I480
I134
tp283
a(I480
I134
I482
I137
tp284
a(I482
I137
I483
I139
tp285
a(I483
I139
I483
I141
tp286
a(I483
I141
I484
I143
tp287
a(I484
I143
I485
I145
tp288
a(I485
I145
I486
I146
tp289
a(I486
I146
I487
I147
tp290
a(I487
I147
I488
I147
tp291
a(I488
I147
I488
I148
tp292
a(I488
I148
I489
I150
tp293
a(I489
I150
I489
I151
tp294
a(I489
I151
I490
I151
tp295
a(I490
I151
I492
I151
tp296
a(I492
I151
I494
I150
tp297
a(I494
I150
I495
I149
tp298
a(I495
I149
I496
I148
tp299
a(I496
I148
I498
I147
tp300
a(I498
I147
I502
I146
tp301
a(I502
I146
I506
I143
tp302
a(I506
I143
I509
I142
tp303
a(I509
I142
I510
I141
tp304
a(I510
I141
I512
I140
tp305
a(I512
I140
I516
I138
tp306
a(I516
I138
I517
I138
tp307
a(I517
I138
I520
I137
tp308
a(I520
I137
I524
I136
tp309
a(I524
I136
I526
I135
tp310
a(I526
I135
I529
I133
tp311
a(I529
I133
I531
I133
tp312
a(I531
I133
I534
I131
tp313
a(I534
I131
I536
I128
tp314
a(I536
I128
I540
I127
tp315
a(I540
I127
I544
I127
tp316
a(I544
I127
I548
I125
tp317
a(I548
I125
I552
I125
tp318
a(I552
I125
I555
I124
tp319
a(I555
I124
I559
I124
tp320
a(I559
I124
I563
I124
tp321
a(I563
I124
I564
I124
tp322
a(I564
I124
I567
I123
tp323
a(I567
I123
I570
I122
tp324
a(I570
I122
I571
I122
tp325
a(I571
I122
I575
I122
tp326
a(I575
I122
I577
I120
tp327
a(I577
I120
I579
I120
tp328
a(I579
I120
I580
I119
tp329
a(I580
I119
I581
I119
tp330
a(I581
I119
I583
I119
tp331
a(I583
I119
I584
I119
tp332
a(I584
I119
I585
I119
tp333
a(I585
I119
I586
I119
tp334
a(I586
I119
I587
I119
tp335
a(I587
I119
I587
I120
tp336
a(I587
I120
I588
I121
tp337
a(I588
I121
I589
I122
tp338
a(I589
I122
I589
I124
tp339
a(I589
I124
I589
I125
tp340
a(I589
I125
I589
I126
tp341
a(I589
I126
I589
I127
tp342
a(I589
I127
I589
I128
tp343
a(I589
I128
I590
I129
tp344
a(I590
I129
I590
I130
tp345
a(I590
I130
I590
I131
tp346
a(I590
I131
I590
I132
tp347
a(I590
I132
I590
I133
tp348
a(I590
I133
I590
I134
tp349
a(I590
I134
I590
I135
tp350
a(I590
I135
I591
I135
tp351
a(I591
I135
I591
I136
tp352
a(I591
I136
I591
I137
tp353
a(I591
I137
I591
I138
tp354
a(I591
I138
I592
I138
tp355
a(I592
I138
I592
I139
tp356
a(I592
I139
I593
I140
tp357
a(I593
I140
I594
I140
tp358
a(I594
I140
I595
I140
tp359
a(I595
I140
I596
I140
tp360
a(I596
I140
I597
I140
tp361
a(I597
I140
I598
I140
tp362
a(I598
I140
I599
I140
tp363
a(I599
I140
I600
I140
tp364
a(I600
I140
I601
I140
tp365
a(I601
I140
I604
I140
tp366
a(I604
I140
I605
I140
tp367
a(I605
I140
I605
I141
tp368
a(I605
I141
I606
I141
tp369
a(I606
I141
I607
I141
tp370
a(I607
I141
I608
I141
tp371
a(I608
I141
I609
I141
tp372
a(I609
I141
I610
I141
tp373
a(I610
I141
I611
I141
tp374
a(I611
I141
I612
I140
tp375
a(I612
I140
I614
I139
tp376
a(I614
I139
I616
I137
tp377
a(I616
I137
I617
I136
tp378
a(I617
I136
I619
I133
tp379
a(I619
I133
I620
I132
tp380
a(I620
I132
I620
I131
tp381
a(I620
I131
I621
I130
tp382
a(I621
I130
I622
I129
tp383
a(I622
I129
I623
I127
tp384
a(I623
I127
I623
I126
tp385
a(I623
I126
I624
I123
tp386
a(I624
I123
I624
I121
tp387
a(I624
I121
I626
I117
tp388
a(I626
I117
I626
I115
tp389
a(I626
I115
I627
I112
tp390
a(I627
I112
I627
I111
tp391
a(I627
I111
I627
I109
tp392
a(I627
I109
I628
I108
tp393
a(I628
I108
I628
I104
tp394
a(I628
I104
I628
I102
tp395
a(I628
I102
I628
I99
tp396
a(I628
I99
I628
I97
tp397
a(I628
I97
I628
I95
tp398
a(I628
I95
I628
I92
tp399
a(I628
I92
I628
I88
tp400
a(I628
I88
I628
I84
tp401
a(I628
I84
I628
I82
tp402
a(I628
I82
I628
I80
tp403
a(I628
I80
I627
I76
tp404
a(I627
I76
I627
I70
tp405
a(I627
I70
I625
I66
tp406
a(I625
I66
I624
I63
tp407
a(I624
I63
I624
I60
tp408
a(I624
I60
I623
I55
tp409
a(I623
I55
I621
I51
tp410
a(I621
I51
I620
I47
tp411
a(I620
I47
I619
I45
tp412
a(I619
I45
I619
I44
tp413
a(I619
I44
I619
I42
tp414
a(I619
I42
I619
I39
tp415
a(I619
I39
I619
I37
tp416
a(I619
I37
I619
I36
tp417
a(I619
I36
I619
I35
tp418
a(I619
I35
I619
I32
tp419
a(I619
I32
I619
I31
tp420
a(I619
I31
I620
I30
tp421
a(I620
I30
I621
I29
tp422
a(I621
I29
I622
I28
tp423
a(I622
I28
I623
I27
tp424
a(I623
I27
I624
I26
tp425
a(I624
I26
I625
I26
tp426
a(I625
I26
I626
I25
tp427
a(I626
I25
I627
I25
tp428
a(I627
I25
I628
I25
tp429
a(I628
I25
I629
I24
tp430
a(I629
I24
I630
I24
tp431
a(I630
I24
I631
I24
tp432
a(I631
I24
I632
I24
tp433
a(I632
I24
I633
I24
tp434
a(I633
I24
I634
I24
tp435
a(I634
I24
I634
I23
tp436
a(I634
I23
I636
I23
tp437
a(I636
I23
I637
I23
tp438
a(I637
I23
I638
I23
tp439
a(I638
I23
I639
I23
tp440
a(I639
I23
I640
I23
tp441
a(I640
I23
I641
I23
tp442
a(I641
I23
I642
I24
tp443
a(I642
I24
I643
I26
tp444
a(I643
I26
I644
I27
tp445
a(I644
I27
I646
I30
tp446
a(I646
I30
I649
I31
tp447
a(I649
I31
I652
I34
tp448
a(I652
I34
I653
I35
tp449
a(I653
I35
I654
I37
tp450
a(I654
I37
I655
I38
tp451
a(I655
I38
I656
I39
tp452
a(I656
I39
I656
I40
tp453
a(I656
I40
I656
I42
tp454
a(I656
I42
I657
I42
tp455
a(I657
I42
I657
I44
tp456
a(I657
I44
I657
I45
tp457
a(I657
I45
I657
I47
tp458
a(I657
I47
I657
I48
tp459
a(I657
I48
I657
I49
tp460
a(I657
I49
I658
I50
tp461
a(I658
I50
I658
I51
tp462
a(I658
I51
I658
I52
tp463
a(I658
I52
I658
I53
tp464
a(I658
I53
I658
I54
tp465
a(I658
I54
I658
I55
tp466
a(I658
I55
I658
I56
tp467
a(I658
I56
I658
I57
tp468
a(I658
I57
I658
I58
tp469
a(I658
I58
I658
I61
tp470
a(I658
I61
I658
I62
tp471
a(I658
I62
I658
I63
tp472
a(I658
I63
I659
I65
tp473
a(I659
I65
I659
I66
tp474
a(I659
I66
I660
I68
tp475
a(I660
I68
I660
I71
tp476
a(I660
I71
I661
I72
tp477
a(I661
I72
I662
I74
tp478
a(I662
I74
I663
I75
tp479
a(I663
I75
I663
I79
tp480
a(I663
I79
I665
I81
tp481
a(I665
I81
I666
I82
tp482
a(I666
I82
I666
I84
tp483
a(I666
I84
I667
I87
tp484
a(I667
I87
I667
I88
tp485
a(I667
I88
I668
I89
tp486
a(I668
I89
I669
I91
tp487
a(I669
I91
I670
I92
tp488
a(I670
I92
I670
I93
tp489
a(I670
I93
I671
I96
tp490
a(I671
I96
I672
I97
tp491
a(I672
I97
I674
I99
tp492
a(I674
I99
I675
I100
tp493
a(I675
I100
I676
I101
tp494
a(I676
I101
I676
I102
tp495
a(I676
I102
I677
I103
tp496
a(I677
I103
I677
I104
tp497
a(I677
I104
I678
I105
tp498
a(I678
I105
I679
I105
tp499
a(I679
I105
I679
I106
tp500
a(I679
I106
I680
I107
tp501
a(I680
I107
I680
I109
tp502
a(I680
I109
I681
I109
tp503
a(I681
I109
I681
I110
tp504
a(I681
I110
I681
I111
tp505
a(I681
I111
I682
I111
tp506
a(I682
I111
I683
I112
tp507
a(I683
I112
I683
I113
tp508
a(I683
I113
I684
I114
tp509
a(I684
I114
I685
I114
tp510
a(I685
I114
I685
I116
tp511
a(I685
I116
I686
I117
tp512
a(I686
I117
I686
I118
tp513
a(I686
I118
I687
I119
tp514
a(I687
I119
I690
I120
tp515
a(I690
I120
I691
I123
tp516
a(I691
I123
I692
I124
tp517
a(I692
I124
I694
I125
tp518
a(I694
I125
I695
I128
tp519
a(I695
I128
I697
I129
tp520
a(I697
I129
I699
I130
tp521
a(I699
I130
I700
I132
tp522
a(I700
I132
I701
I133
tp523
a(I701
I133
I702
I134
tp524
a(I702
I134
I703
I135
tp525
a(I703
I135
I706
I138
tp526
a(I706
I138
I707
I139
tp527
a(I707
I139
I707
I140
tp528
a(I707
I140
I708
I142
tp529
a(I708
I142
I709
I143
tp530
a(I709
I143
I710
I144
tp531
a(I710
I144
I712
I145
tp532
a(I712
I145
I713
I146
tp533
a(I713
I146
I714
I148
tp534
a(I714
I148
I715
I149
tp535
a(I715
I149
I716
I150
tp536
a(I716
I150
I718
I152
tp537
a(I718
I152
I719
I153
tp538
a(I719
I153
I720
I154
tp539
a(I720
I154
I721
I154
tp540
a(I721
I154
I722
I155
tp541
a(I722
I155
I723
I156
tp542
a(I723
I156
I724
I156
tp543
a(I724
I156
I724
I157
tp544
a(I724
I157
I725
I158
tp545
a(I725
I158
I726
I158
tp546
a(I726
I158
I726
I159
tp547
a(I726
I159
I727
I159
tp548
a(I727
I159
I727
I160
tp549
a(I727
I160
I728
I161
tp550
a(I728
I161
I729
I162
tp551
a(I729
I162
I730
I163
tp552
a(I730
I163
I731
I165
tp553
a(I731
I165
I732
I166
tp554
a(I732
I166
I733
I167
tp555
a(I733
I167
I734
I168
tp556
a(I734
I168
I735
I169
tp557
a(I735
I169
I735
I170
tp558
a(I735
I170
I736
I170
tp559
a(I736
I170
I736
I171
tp560
a(I736
I171
I736
I172
tp561
a(I736
I172
I737
I172
tp562
a(I737
I172
I737
I173
tp563
a(I737
I173
I737
I174
tp564
a(I737
I174
I739
I175
tp565
a(I739
I175
I739
I176
tp566
a(I739
I176
I739
I177
tp567
a(I739
I177
I740
I178
tp568
a(I740
I178
I740
I180
tp569
a(I740
I180
I741
I181
tp570
a(I741
I181
I741
I182
tp571
a(I741
I182
I741
I184
tp572
a(I741
I184
I742
I185
tp573
a(I742
I185
I742
I186
tp574
a(I742
I186
I742
I187
tp575
a(I742
I187
I743
I189
tp576
a(I743
I189
I743
I190
tp577
a(I743
I190
I743
I192
tp578
a(I743
I192
I744
I195
tp579
a(I744
I195
I744
I196
tp580
a(I744
I196
I744
I198
tp581
a(I744
I198
I744
I200
tp582
a(I744
I200
I744
I201
tp583
a(I744
I201
I744
I204
tp584
a(I744
I204
I744
I205
tp585
a(I744
I205
I744
I207
tp586
a(I744
I207
I744
I208
tp587
a(I744
I208
I744
I212
tp588
a(I744
I212
I744
I213
tp589
a(I744
I213
I745
I216
tp590
a(I745
I216
I745
I220
tp591
a(I745
I220
I745
I222
tp592
a(I745
I222
I745
I225
tp593
a(I745
I225
I745
I226
tp594
a(I745
I226
I745
I228
tp595
a(I745
I228
I745
I230
tp596
a(I745
I230
I745
I232
tp597
a(I745
I232
I745
I234
tp598
a(I745
I234
I745
I235
tp599
a(I745
I235
I745
I237
tp600
a(I745
I237
I745
I239
tp601
a(I745
I239
I745
I242
tp602
a(I745
I242
I745
I244
tp603
a(I745
I244
I746
I245
tp604
a(I746
I245
I746
I247
tp605
a(I746
I247
I746
I250
tp606
a(I746
I250
I746
I252
tp607
a(I746
I252
I748
I255
tp608
a(I748
I255
I748
I257
tp609
a(I748
I257
I748
I259
tp610
a(I748
I259
I749
I262
tp611
a(I749
I262
I749
I263
tp612
a(I749
I263
I750
I265
tp613
a(I750
I265
I750
I268
tp614
a(I750
I268
I750
I272
tp615
a(I750
I272
I751
I276
tp616
a(I751
I276
I751
I278
tp617
a(I751
I278
I753
I282
tp618
a(I753
I282
I754
I286
tp619
a(I754
I286
I755
I290
tp620
a(I755
I290
I755
I294
tp621
a(I755
I294
I757
I298
tp622
a(I757
I298
I758
I301
tp623
a(I758
I301
I759
I305
tp624
a(I759
I305
I761
I309
tp625
a(I761
I309
I762
I311
tp626
a(I762
I311
I763
I314
tp627
a(I763
I314
I765
I318
tp628
a(I765
I318
I766
I320
tp629
a(I766
I320
I766
I323
tp630
a(I766
I323
I766
I325
tp631
a(I766
I325
I767
I326
tp632
a(I767
I326
I767
I328
tp633
a(I767
I328
I767
I329
tp634
a(I767
I329
I767
I332
tp635
a(I767
I332
I768
I333
tp636
a(I768
I333
I768
I334
tp637
a(I768
I334
I768
I335
tp638
a(I768
I335
I768
I336
tp639
a(I768
I336
I768
I337
tp640
a(I768
I337
I768
I338
tp641
a(I768
I338
I768
I339
tp642
a(I768
I339
I768
I340
tp643
a(I768
I340
I768
I341
tp644
a(I768
I341
I769
I342
tp645
a(I769
I342
I769
I343
tp646
a(I769
I343
I769
I344
tp647
a(I769
I344
I769
I345
tp648
a(I769
I345
I769
I346
tp649
a(I769
I346
I769
I347
tp650
a(I769
I347
I769
I348
tp651
a(I769
I348
I769
I349
tp652
a(I769
I349
I769
I350
tp653
a(I769
I350
I769
I351
tp654
a(I769
I351
I769
I353
tp655
a(I769
I353
I769
I354
tp656
a(I769
I354
I770
I355
tp657
a(I770
I355
I770
I356
tp658
a(I770
I356
I770
I357
tp659
a(I770
I357
I770
I358
tp660
a(I770
I358
I770
I359
tp661
a(I770
I359
I770
I360
tp662
a(I770
I360
I770
I361
tp663
a(I770
I361
I770
I362
tp664
a(I770
I362
I770
I363
tp665
a(I770
I363
I770
I365
tp666
a(I770
I365
I770
I366
tp667
a(I770
I366
I770
I369
tp668
a(I770
I369
I770
I371
tp669
a(I770
I371
I770
I373
tp670
a(I770
I373
I771
I374
tp671
a(I771
I374
I771
I375
tp672
a(I771
I375
I771
I378
tp673
a(I771
I378
I771
I379
tp674
a(I771
I379
I771
I380
tp675
a(I771
I380
I771
I381
tp676
a(I771
I381
I771
I382
tp677
a(I771
I382
I771
I383
tp678
a(I771
I383
I771
I384
tp679
a(I771
I384
I771
I386
tp680
a(I771
I386
I771
I387
tp681
a(I771
I387
I771
I388
tp682
a(I771
I388
I771
I389
tp683
a(I771
I389
I771
I390
tp684
a(I771
I390
I771
I391
tp685
a(I771
I391
I770
I390
tp686
a(I770
I390
I770
I389
tp687
atp688
a(g2
I1
(lp689
(I203
I194
I202
I194
tp690
a(I202
I194
I201
I195
tp691
a(I201
I195
I200
I195
tp692
a(I200
I195
I198
I195
tp693
a(I198
I195
I197
I196
tp694
a(I197
I196
I196
I196
tp695
a(I196
I196
I193
I196
tp696
a(I193
I196
I191
I197
tp697
a(I191
I197
I190
I197
tp698
a(I190
I197
I189
I200
tp699
a(I189
I200
I186
I201
tp700
a(I186
I201
I184
I202
tp701
a(I184
I202
I182
I202
tp702
a(I182
I202
I180
I203
tp703
a(I180
I203
I178
I205
tp704
a(I178
I205
I177
I206
tp705
a(I177
I206
I174
I208
tp706
a(I174
I208
I173
I209
tp707
a(I173
I209
I172
I210
tp708
a(I172
I210
I170
I214
tp709
a(I170
I214
I167
I216
tp710
a(I167
I216
I164
I219
tp711
a(I164
I219
I162
I222
tp712
a(I162
I222
I161
I224
tp713
a(I161
I224
I158
I227
tp714
a(I158
I227
I155
I229
tp715
a(I155
I229
I155
I233
tp716
a(I155
I233
I154
I236
tp717
a(I154
I236
I151
I239
tp718
a(I151
I239
I150
I243
tp719
a(I150
I243
I149
I245
tp720
a(I149
I245
I146
I249
tp721
a(I146
I249
I145
I252
tp722
a(I145
I252
I142
I258
tp723
a(I142
I258
I141
I260
tp724
a(I141
I260
I139
I266
tp725
a(I139
I266
I137
I268
tp726
a(I137
I268
I135
I272
tp727
a(I135
I272
I134
I277
tp728
a(I134
I277
I133
I281
tp729
a(I133
I281
I131
I285
tp730
a(I131
I285
I130
I289
tp731
a(I130
I289
I130
I293
tp732
a(I130
I293
I128
I297
tp733
a(I128
I297
I126
I299
tp734
a(I126
I299
I126
I302
tp735
a(I126
I302
I125
I304
tp736
a(I125
I304
I122
I308
tp737
a(I122
I308
I121
I311
tp738
a(I121
I311
I119
I315
tp739
a(I119
I315
I118
I319
tp740
a(I118
I319
I117
I320
tp741
a(I117
I320
I116
I324
tp742
a(I116
I324
I116
I326
tp743
a(I116
I326
I114
I330
tp744
a(I114
I330
I113
I331
tp745
a(I113
I331
I113
I333
tp746
a(I113
I333
I113
I334
tp747
a(I113
I334
I113
I335
tp748
a(I113
I335
I113
I336
tp749
a(I113
I336
I113
I337
tp750
a(I113
I337
I113
I338
tp751
a(I113
I338
I113
I340
tp752
a(I113
I340
I112
I341
tp753
a(I112
I341
I112
I342
tp754
a(I112
I342
I111
I342
tp755
a(I111
I342
I110
I342
tp756
a(I110
I342
I109
I343
tp757
a(I109
I343
I107
I343
tp758
a(I107
I343
I103
I343
tp759
a(I103
I343
I97
I344
tp760
a(I97
I344
I92
I344
tp761
a(I92
I344
I86
I345
tp762
a(I86
I345
I82
I345
tp763
a(I82
I345
I80
I345
tp764
a(I80
I345
I77
I347
tp765
a(I77
I347
I75
I347
tp766
a(I75
I347
I73
I347
tp767
a(I73
I347
I70
I347
tp768
a(I70
I347
I69
I347
tp769
a(I69
I347
I69
I344
tp770
a(I69
I344
I69
I343
tp771
a(I69
I343
I69
I342
tp772
atp773
a(g2
I1
(lp774
(I128
I90
I127
I90
tp775
a(I127
I90
I127
I91
tp776
a(I127
I91
I127
I92
tp777
a(I127
I92
I126
I93
tp778
a(I126
I93
I126
I95
tp779
a(I126
I95
I125
I98
tp780
a(I125
I98
I125
I99
tp781
a(I125
I99
I124
I101
tp782
a(I124
I101
I124
I103
tp783
a(I124
I103
I122
I106
tp784
a(I122
I106
I121
I108
tp785
a(I121
I108
I120
I112
tp786
a(I120
I112
I118
I117
tp787
a(I118
I117
I115
I122
tp788
a(I115
I122
I113
I127
tp789
a(I113
I127
I110
I132
tp790
a(I110
I132
I107
I138
tp791
a(I107
I138
I104
I143
tp792
a(I104
I143
I103
I148
tp793
a(I103
I148
I100
I154
tp794
a(I100
I154
I96
I160
tp795
a(I96
I160
I95
I166
tp796
a(I95
I166
I94
I172
tp797
a(I94
I172
I92
I176
tp798
a(I92
I176
I91
I182
tp799
a(I91
I182
I91
I185
tp800
a(I91
I185
I91
I191
tp801
a(I91
I191
I89
I197
tp802
a(I89
I197
I89
I202
tp803
a(I89
I202
I89
I208
tp804
a(I89
I208
I89
I213
tp805
a(I89
I213
I89
I219
tp806
a(I89
I219
I89
I224
tp807
a(I89
I224
I89
I230
tp808
a(I89
I230
I89
I235
tp809
a(I89
I235
I89
I239
tp810
a(I89
I239
I89
I245
tp811
a(I89
I245
I89
I249
tp812
a(I89
I249
I89
I253
tp813
a(I89
I253
I89
I255
tp814
a(I89
I255
I89
I256
tp815
a(I89
I256
I90
I258
tp816
a(I90
I258
I90
I261
tp817
a(I90
I261
I90
I262
tp818
a(I90
I262
I91
I263
tp819
a(I91
I263
I91
I264
tp820
a(I91
I264
I92
I264
tp821
a(I92
I264
I93
I264
tp822
a(I93
I264
I93
I261
tp823
a(I93
I261
I94
I257
tp824
a(I94
I257
I94
I253
tp825
atp826
a(g2
I1
(lp827
(I120
I99
I121
I99
tp828
a(I121
I99
I122
I98
tp829
a(I122
I98
I123
I97
tp830
a(I123
I97
I125
I97
tp831
a(I125
I97
I126
I96
tp832
a(I126
I96
I127
I96
tp833
a(I127
I96
I128
I96
tp834
a(I128
I96
I128
I95
tp835
a(I128
I95
I129
I95
tp836
a(I129
I95
I130
I94
tp837
a(I130
I94
I131
I94
tp838
a(I131
I94
I132
I93
tp839
a(I132
I93
I133
I93
tp840
a(I133
I93
I134
I92
tp841
a(I134
I92
I135
I92
tp842
a(I135
I92
I136
I91
tp843
a(I136
I91
I137
I90
tp844
a(I137
I90
I139
I90
tp845
a(I139
I90
I140
I90
tp846
a(I140
I90
I140
I89
tp847
a(I140
I89
I141
I89
tp848
a(I141
I89
I142
I89
tp849
a(I142
I89
I144
I89
tp850
a(I144
I89
I145
I89
tp851
a(I145
I89
I146
I89
tp852
a(I146
I89
I147
I89
tp853
a(I147
I89
I148
I89
tp854
a(I148
I89
I149
I89
tp855
a(I149
I89
I150
I90
tp856
a(I150
I90
I151
I91
tp857
a(I151
I91
I153
I91
tp858
a(I153
I91
I154
I92
tp859
a(I154
I92
I156
I93
tp860
a(I156
I93
I159
I96
tp861
a(I159
I96
I160
I97
tp862
a(I160
I97
I162
I99
tp863
a(I162
I99
I164
I100
tp864
a(I164
I100
I167
I103
tp865
a(I167
I103
I170
I105
tp866
a(I170
I105
I172
I108
tp867
a(I172
I108
I177
I111
tp868
a(I177
I111
I179
I112
tp869
a(I179
I112
I180
I113
tp870
a(I180
I113
I184
I116
tp871
a(I184
I116
I186
I118
tp872
a(I186
I118
I187
I119
tp873
a(I187
I119
I190
I122
tp874
a(I190
I122
I191
I124
tp875
a(I191
I124
I192
I127
tp876
a(I192
I127
I193
I128
tp877
a(I193
I128
I195
I130
tp878
a(I195
I130
I196
I131
tp879
a(I196
I131
I198
I133
tp880
a(I198
I133
I199
I134
tp881
a(I199
I134
I200
I137
tp882
a(I200
I137
I201
I138
tp883
a(I201
I138
I202
I140
tp884
a(I202
I140
I203
I141
tp885
a(I203
I141
I205
I143
tp886
a(I205
I143
I206
I144
tp887
a(I206
I144
I207
I146
tp888
a(I207
I146
I208
I147
tp889
a(I208
I147
I209
I148
tp890
a(I209
I148
I210
I149
tp891
a(I210
I149
I211
I150
tp892
a(I211
I150
I212
I150
tp893
a(I212
I150
I212
I151
tp894
a(I212
I151
I213
I152
tp895
a(I213
I152
I214
I153
tp896
a(I214
I153
I214
I154
tp897
a(I214
I154
I215
I155
tp898
a(I215
I155
I216
I156
tp899
a(I216
I156
I217
I157
tp900
a(I217
I157
I218
I157
tp901
a(I218
I157
I219
I158
tp902
a(I219
I158
I220
I158
tp903
a(I220
I158
I222
I158
tp904
a(I222
I158
I224
I158
tp905
a(I224
I158
I226
I159
tp906
a(I226
I159
I228
I159
tp907
a(I228
I159
I231
I159
tp908
a(I231
I159
I233
I160
tp909
a(I233
I160
I237
I160
tp910
a(I237
I160
I239
I160
tp911
a(I239
I160
I242
I160
tp912
a(I242
I160
I243
I160
tp913
a(I243
I160
I245
I162
tp914
a(I245
I162
I247
I162
tp915
a(I247
I162
I249
I162
tp916
a(I249
I162
I250
I162
tp917
a(I250
I162
I251
I162
tp918
a(I251
I162
I252
I163
tp919
a(I252
I163
I253
I163
tp920
a(I253
I163
I254
I163
tp921
a(I254
I163
I255
I163
tp922
a(I255
I163
I256
I163
tp923
a(I256
I163
I257
I163
tp924
a(I257
I163
I258
I163
tp925
a(I258
I163
I259
I164
tp926
a(I259
I164
I260
I164
tp927
a(I260
I164
I262
I165
tp928
a(I262
I165
I262
I166
tp929
a(I262
I166
I265
I166
tp930
a(I265
I166
I265
I167
tp931
a(I265
I167
I266
I167
tp932
a(I266
I167
I268
I168
tp933
a(I268
I168
I269
I169
tp934
a(I269
I169
I270
I170
tp935
a(I270
I170
I271
I170
tp936
a(I271
I170
I272
I170
tp937
a(I272
I170
I272
I171
tp938
a(I272
I171
I273
I171
tp939
a(I273
I171
I274
I172
tp940
a(I274
I172
I275
I172
tp941
a(I275
I172
I276
I173
tp942
a(I276
I173
I277
I173
tp943
a(I277
I173
I278
I174
tp944
a(I278
I174
I279
I175
tp945
a(I279
I175
I281
I177
tp946
a(I281
I177
I282
I178
tp947
a(I282
I178
I283
I178
tp948
a(I283
I178
I284
I179
tp949
a(I284
I179
I285
I179
tp950
a(I285
I179
I286
I179
tp951
a(I286
I179
I286
I180
tp952
a(I286
I180
I287
I180
tp953
a(I287
I180
I288
I181
tp954
a(I288
I181
I289
I181
tp955
a(I289
I181
I290
I182
tp956
a(I290
I182
I292
I182
tp957
a(I292
I182
I295
I183
tp958
a(I295
I183
I296
I183
tp959
a(I296
I183
I297
I183
tp960
a(I297
I183
I298
I183
tp961
a(I298
I183
I299
I183
tp962
a(I299
I183
I300
I183
tp963
a(I300
I183
I301
I184
tp964
a(I301
I184
I303
I184
tp965
a(I303
I184
I304
I184
tp966
a(I304
I184
I305
I185
tp967
a(I305
I185
I306
I185
tp968
a(I306
I185
I307
I185
tp969
a(I307
I185
I308
I185
tp970
a(I308
I185
I310
I185
tp971
a(I310
I185
I310
I186
tp972
a(I310
I186
I309
I186
tp973
a(I309
I186
I308
I186
tp974
a(I308
I186
I307
I187
tp975
a(I307
I187
I306
I187
tp976
a(I306
I187
I304
I188
tp977
a(I304
I188
I301
I190
tp978
a(I301
I190
I300
I190
tp979
a(I300
I190
I299
I190
tp980
a(I299
I190
I298
I191
tp981
a(I298
I191
I296
I191
tp982
a(I296
I191
I293
I193
tp983
a(I293
I193
I291
I193
tp984
a(I291
I193
I287
I196
tp985
a(I287
I196
I286
I196
tp986
a(I286
I196
I284
I197
tp987
a(I284
I197
I281
I198
tp988
a(I281
I198
I280
I200
tp989
a(I280
I200
I279
I200
tp990
a(I279
I200
I279
I201
tp991
a(I279
I201
I278
I201
tp992
a(I278
I201
I277
I201
tp993
a(I277
I201
I276
I202
tp994
a(I276
I202
I275
I203
tp995
a(I275
I203
I276
I203
tp996
a(I276
I203
I276
I202
tp997
a(I276
I202
I276
I201
tp998
a(I276
I201
I277
I199
tp999
a(I277
I199
I278
I198
tp1000
atp1001
a(g2
I1
(lp1002
(I298
I186
I299
I186
tp1003
a(I299
I186
I299
I187
tp1004
a(I299
I187
I300
I187
tp1005
a(I300
I187
I301
I187
tp1006
a(I301
I187
I302
I188
tp1007
a(I302
I188
I303
I189
tp1008
a(I303
I189
I304
I189
tp1009
a(I304
I189
I305
I190
tp1010
a(I305
I190
I308
I191
tp1011
a(I308
I191
I309
I192
tp1012
a(I309
I192
I310
I192
tp1013
a(I310
I192
I312
I193
tp1014
a(I312
I193
I313
I196
tp1015
a(I313
I196
I315
I197
tp1016
a(I315
I197
I316
I197
tp1017
a(I316
I197
I318
I198
tp1018
a(I318
I198
I320
I199
tp1019
a(I320
I199
I320
I200
tp1020
a(I320
I200
I323
I202
tp1021
a(I323
I202
I324
I203
tp1022
a(I324
I203
I325
I203
tp1023
a(I325
I203
I326
I204
tp1024
a(I326
I204
I327
I204
tp1025
a(I327
I204
I327
I205
tp1026
a(I327
I205
I327
I206
tp1027
a(I327
I206
I327
I207
tp1028
a(I327
I207
I328
I207
tp1029
a(I328
I207
I328
I208
tp1030
a(I328
I208
I329
I208
tp1031
a(I329
I208
I329
I209
tp1032
a(I329
I209
I329
I210
tp1033
a(I329
I210
I330
I211
tp1034
a(I330
I211
I330
I212
tp1035
a(I330
I212
I330
I213
tp1036
a(I330
I213
I331
I213
tp1037
a(I331
I213
I331
I214
tp1038
a(I331
I214
I331
I215
tp1039
a(I331
I215
I331
I216
tp1040
atp1041
a(g2
I1
(lp1042
(I424
I41
I424
I41
tp1043
a(I424
I41
I424
I42
tp1044
a(I424
I42
I425
I42
tp1045
a(I425
I42
I425
I43
tp1046
atp1047
a.