(lp1
(S'Black'
p2
I1
(lp3
(I330
I172
I330
I172
tp4
a(I330
I172
I331
I172
tp5
atp6
a(g2
I1
(lp7
(I192
I209
I193
I209
tp8
a(I193
I209
I194
I210
tp9
a(I194
I210
I198
I212
tp10
a(I198
I212
I202
I216
tp11
a(I202
I216
I213
I222
tp12
a(I213
I222
I222
I227
tp13
a(I222
I227
I233
I232
tp14
a(I233
I232
I244
I238
tp15
a(I244
I238
I252
I243
tp16
a(I252
I243
I261
I246
tp17
a(I261
I246
I269
I252
tp18
a(I269
I252
I288
I260
tp19
a(I288
I260
I297
I264
tp20
a(I297
I264
I305
I267
tp21
a(I305
I267
I314
I272
tp22
a(I314
I272
I318
I273
tp23
a(I318
I273
I325
I277
tp24
a(I325
I277
I331
I278
tp25
a(I331
I278
I337
I279
tp26
a(I337
I279
I341
I281
tp27
a(I341
I281
I346
I281
tp28
a(I346
I281
I350
I281
tp29
a(I350
I281
I354
I281
tp30
a(I354
I281
I358
I281
tp31
a(I358
I281
I362
I281
tp32
a(I362
I281
I365
I281
tp33
a(I365
I281
I367
I279
tp34
a(I367
I279
I370
I278
tp35
a(I370
I278
I372
I277
tp36
a(I372
I277
I375
I274
tp37
a(I375
I274
I379
I273
tp38
a(I379
I273
I383
I270
tp39
a(I383
I270
I386
I266
tp40
a(I386
I266
I390
I262
tp41
a(I390
I262
I394
I257
tp42
a(I394
I257
I398
I255
tp43
a(I398
I255
I403
I250
tp44
a(I403
I250
I407
I248
tp45
a(I407
I248
I411
I246
tp46
a(I411
I246
I412
I244
tp47
a(I412
I244
I416
I241
tp48
a(I416
I241
I419
I238
tp49
a(I419
I238
I421
I237
tp50
a(I421
I237
I425
I236
tp51
a(I425
I236
I428
I233
tp52
a(I428
I233
I431
I232
tp53
a(I431
I232
I435
I231
tp54
a(I435
I231
I437
I229
tp55
a(I437
I229
I438
I229
tp56
a(I438
I229
I440
I228
tp57
a(I440
I228
I442
I227
tp58
a(I442
I227
I443
I226
tp59
a(I443
I226
I445
I226
tp60
a(I445
I226
I445
I225
tp61
a(I445
I225
I446
I225
tp62
a(I446
I225
I447
I224
tp63
a(I447
I224
I448
I223
tp64
a(I448
I223
I449
I222
tp65
a(I449
I222
I450
I222
tp66
a(I450
I222
I450
I221
tp67
a(I450
I221
I450
I220
tp68
a(I450
I220
I451
I220
tp69
a(I451
I220
I452
I219
tp70
a(I452
I219
I452
I218
tp71
a(I452
I218
I452
I217
tp72
a(I452
I217
I453
I217
tp73
a(I453
I217
I453
I216
tp74
a(I453
I216
I454
I214
tp75
a(I454
I214
I455
I214
tp76
a(I455
I214
I456
I213
tp77
a(I456
I213
I457
I213
tp78
a(I457
I213
I457
I212
tp79
a(I457
I212
I458
I212
tp80
a(I458
I212
I459
I211
tp81
a(I459
I211
I461
I211
tp82
a(I461
I211
I461
I210
tp83
a(I461
I210
I461
I208
tp84
a(I461
I208
I463
I208
tp85
a(I463
I208
I464
I207
tp86
a(I464
I207
I465
I206
tp87
a(I465
I206
I467
I204
tp88
a(I467
I204
I468
I203
tp89
a(I468
I203
I469
I202
tp90
a(I469
I202
I472
I199
tp91
a(I472
I199
I474
I198
tp92
a(I474
I198
I477
I197
tp93
a(I477
I197
I478
I196
tp94
a(I478
I196
I480
I194
tp95
a(I480
I194
I481
I194
tp96
a(I481
I194
I481
I193
tp97
a(I481
I193
I482
I192
tp98
a(I482
I192
I483
I192
tp99
a(I483
I192
I484
I191
tp100
a(I484
I191
I485
I190
tp101
a(I485
I190
I485
I189
tp102
a(I485
I189
I487
I189
tp103
a(I487
I189
I488
I188
tp104
a(I488
I188
I489
I187
tp105
a(I489
I187
I491
I186
tp106
a(I491
I186
I492
I185
tp107
a(I492
I185
I493
I184
tp108
a(I493
I184
I494
I182
tp109
a(I494
I182
I495
I182
tp110
a(I495
I182
I496
I180
tp111
a(I496
I180
I497
I179
tp112
a(I497
I179
I498
I179
tp113
atp114
a(g2
I1
(lp115
(I306
I96
I302
I96
tp116
a(I302
I96
I300
I96
tp117
a(I300
I96
I297
I95
tp118
a(I297
I95
I295
I95
tp119
a(I295
I95
I292
I95
tp120
a(I292
I95
I291
I95
tp121
a(I291
I95
I290
I95
tp122
a(I290
I95
I289
I95
tp123
a(I289
I95
I288
I95
tp124
a(I288
I95
I287
I95
tp125
a(I287
I95
I286
I95
tp126
a(I286
I95
I285
I96
tp127
a(I285
I96
I284
I96
tp128
a(I284
I96
I283
I96
tp129
a(I283
I96
I283
I97
tp130
a(I283
I97
I282
I99
tp131
a(I282
I99
I281
I100
tp132
a(I281
I100
I280
I103
tp133
a(I280
I103
I280
I104
tp134
a(I280
I104
I280
I106
tp135
a(I280
I106
I280
I108
tp136
a(I280
I108
I280
I110
tp137
a(I280
I110
I280
I112
tp138
a(I280
I112
I280
I114
tp139
a(I280
I114
I280
I118
tp140
a(I280
I118
I281
I122
tp141
a(I281
I122
I283
I124
tp142
a(I283
I124
I285
I127
tp143
a(I285
I127
I287
I131
tp144
a(I287
I131
I289
I132
tp145
a(I289
I132
I292
I135
tp146
a(I292
I135
I295
I139
tp147
a(I295
I139
I297
I140
tp148
a(I297
I140
I300
I143
tp149
a(I300
I143
I302
I146
tp150
a(I302
I146
I305
I147
tp151
a(I305
I147
I307
I149
tp152
a(I307
I149
I311
I151
tp153
a(I311
I151
I314
I152
tp154
a(I314
I152
I317
I155
tp155
a(I317
I155
I321
I155
tp156
a(I321
I155
I323
I155
tp157
a(I323
I155
I325
I156
tp158
a(I325
I156
I329
I156
tp159
a(I329
I156
I333
I156
tp160
a(I333
I156
I336
I156
tp161
a(I336
I156
I337
I156
tp162
a(I337
I156
I342
I156
tp163
a(I342
I156
I346
I156
tp164
a(I346
I156
I350
I153
tp165
a(I350
I153
I354
I152
tp166
a(I354
I152
I356
I150
tp167
a(I356
I150
I359
I148
tp168
a(I359
I148
I362
I145
tp169
a(I362
I145
I363
I143
tp170
a(I363
I143
I364
I142
tp171
a(I364
I142
I365
I139
tp172
a(I365
I139
I368
I138
tp173
a(I368
I138
I368
I136
tp174
a(I368
I136
I369
I133
tp175
a(I369
I133
I369
I131
tp176
a(I369
I131
I369
I127
tp177
a(I369
I127
I369
I124
tp178
a(I369
I124
I369
I122
tp179
a(I369
I122
I369
I120
tp180
a(I369
I120
I369
I117
tp181
a(I369
I117
I369
I115
tp182
a(I369
I115
I367
I112
tp183
a(I367
I112
I366
I110
tp184
a(I366
I110
I363
I107
tp185
a(I363
I107
I361
I106
tp186
a(I361
I106
I361
I104
tp187
a(I361
I104
I358
I102
tp188
a(I358
I102
I357
I100
tp189
a(I357
I100
I355
I99
tp190
a(I355
I99
I352
I97
tp191
a(I352
I97
I349
I95
tp192
a(I349
I95
I348
I94
tp193
a(I348
I94
I346
I92
tp194
a(I346
I92
I345
I90
tp195
a(I345
I90
I341
I89
tp196
a(I341
I89
I337
I87
tp197
a(I337
I87
I334
I87
tp198
a(I334
I87
I330
I86
tp199
a(I330
I86
I328
I85
tp200
a(I328
I85
I324
I85
tp201
a(I324
I85
I323
I84
tp202
a(I323
I84
I321
I84
tp203
a(I321
I84
I318
I84
tp204
a(I318
I84
I317
I84
tp205
a(I317
I84
I316
I84
tp206
a(I316
I84
I315
I84
tp207
a(I315
I84
I314
I84
tp208
a(I314
I84
I313
I84
tp209
a(I313
I84
I312
I84
tp210
a(I312
I84
I311
I84
tp211
a(I311
I84
I310
I84
tp212
a(I310
I84
I309
I84
tp213
a(I309
I84
I308
I84
tp214
a(I308
I84
I307
I84
tp215
a(I307
I84
I306
I84
tp216
a(I306
I84
I303
I85
tp217
a(I303
I85
I302
I85
tp218
a(I302
I85
I301
I85
tp219
a(I301
I85
I300
I86
tp220
a(I300
I86
I299
I86
tp221
a(I299
I86
I298
I86
tp222
a(I298
I86
I297
I86
tp223
a(I297
I86
I297
I87
tp224
a(I297
I87
I296
I87
tp225
a(I296
I87
I295
I88
tp226
a(I295
I88
I294
I88
tp227
a(I294
I88
I294
I89
tp228
a(I294
I89
I293
I90
tp229
a(I293
I90
I292
I90
tp230
a(I292
I90
I292
I91
tp231
a(I292
I91
I291
I92
tp232
a(I291
I92
I290
I93
tp233
a(I290
I93
I290
I94
tp234
atp235
a(g2
I1
(lp236
(I397
I89
I397
I90
tp237
a(I397
I90
I398
I91
tp238
a(I398
I91
I398
I92
tp239
a(I398
I92
I399
I93
tp240
a(I399
I93
I401
I94
tp241
a(I401
I94
I402
I97
tp242
a(I402
I97
I403
I98
tp243
a(I403
I98
I404
I100
tp244
a(I404
I100
I404
I102
tp245
a(I404
I102
I404
I105
tp246
a(I404
I105
I405
I106
tp247
a(I405
I106
I405
I108
tp248
a(I405
I108
I406
I109
tp249
a(I406
I109
I406
I111
tp250
a(I406
I111
I406
I114
tp251
a(I406
I114
I406
I118
tp252
a(I406
I118
I406
I120
tp253
a(I406
I120
I406
I124
tp254
a(I406
I124
I406
I126
tp255
a(I406
I126
I406
I129
tp256
a(I406
I129
I406
I131
tp257
a(I406
I131
I404
I134
tp258
a(I404
I134
I403
I136
tp259
a(I403
I136
I403
I137
tp260
a(I403
I137
I403
I139
tp261
a(I403
I139
I402
I141
tp262
a(I402
I141
I401
I142
tp263
a(I401
I142
I400
I144
tp264
a(I400
I144
I400
I145
tp265
a(I400
I145
I398
I147
tp266
a(I398
I147
I395
I149
tp267
a(I395
I149
I391
I151
tp268
a(I391
I151
I388
I154
tp269
a(I388
I154
I384
I157
tp270
a(I384
I157
I382
I158
tp271
a(I382
I158
I376
I163
tp272
a(I376
I163
I373
I165
tp273
a(I373
I165
I370
I166
tp274
a(I370
I166
I366
I168
tp275
a(I366
I168
I365
I168
tp276
a(I365
I168
I363
I169
tp277
a(I363
I169
I361
I170
tp278
a(I361
I170
I357
I170
tp279
a(I357
I170
I353
I170
tp280
a(I353
I170
I349
I173
tp281
a(I349
I173
I346
I173
tp282
a(I346
I173
I342
I173
tp283
a(I342
I173
I337
I173
tp284
a(I337
I173
I333
I174
tp285
a(I333
I174
I327
I174
tp286
a(I327
I174
I323
I176
tp287
a(I323
I176
I319
I176
tp288
a(I319
I176
I314
I176
tp289
a(I314
I176
I310
I176
tp290
a(I310
I176
I306
I176
tp291
a(I306
I176
I302
I176
tp292
a(I302
I176
I298
I176
tp293
a(I298
I176
I294
I176
tp294
a(I294
I176
I292
I176
tp295
a(I292
I176
I288
I176
tp296
a(I288
I176
I284
I176
tp297
a(I284
I176
I281
I176
tp298
a(I281
I176
I279
I176
tp299
a(I279
I176
I276
I175
tp300
a(I276
I175
I275
I175
tp301
a(I275
I175
I274
I175
tp302
a(I274
I175
I273
I175
tp303
a(I273
I175
I272
I175
tp304
a(I272
I175
I273
I175
tp305
a(I273
I175
I274
I175
tp306
a(I274
I175
I275
I175
tp307
a(I275
I175
I277
I175
tp308
a(I277
I175
I278
I175
tp309
a(I278
I175
I280
I175
tp310
a(I280
I175
I281
I175
tp311
a(I281
I175
I283
I175
tp312
a(I283
I175
I286
I177
tp313
a(I286
I177
I290
I178
tp314
a(I290
I178
I292
I179
tp315
a(I292
I179
I295
I181
tp316
a(I295
I181
I297
I183
tp317
a(I297
I183
I300
I183
tp318
a(I300
I183
I302
I184
tp319
a(I302
I184
I303
I185
tp320
a(I303
I185
I307
I185
tp321
a(I307
I185
I308
I187
tp322
a(I308
I187
I309
I187
tp323
a(I309
I187
I310
I187
tp324
a(I310
I187
I311
I187
tp325
a(I311
I187
I312
I187
tp326
a(I312
I187
I313
I187
tp327
a(I313
I187
I314
I187
tp328
a(I314
I187
I316
I187
tp329
a(I316
I187
I317
I187
tp330
a(I317
I187
I318
I187
tp331
a(I318
I187
I321
I187
tp332
a(I321
I187
I322
I187
tp333
a(I322
I187
I324
I187
tp334
a(I324
I187
I325
I188
tp335
a(I325
I188
I326
I188
tp336
a(I326
I188
I327
I188
tp337
a(I327
I188
I329
I188
tp338
a(I329
I188
I330
I188
tp339
a(I330
I188
I333
I188
tp340
a(I333
I188
I335
I188
tp341
a(I335
I188
I337
I188
tp342
a(I337
I188
I340
I188
tp343
a(I340
I188
I342
I188
tp344
a(I342
I188
I344
I188
tp345
a(I344
I188
I347
I188
tp346
a(I347
I188
I349
I188
tp347
a(I349
I188
I351
I188
tp348
a(I351
I188
I354
I188
tp349
a(I354
I188
I356
I188
tp350
a(I356
I188
I359
I188
tp351
a(I359
I188
I361
I188
tp352
a(I361
I188
I363
I188
tp353
a(I363
I188
I364
I188
tp354
a(I364
I188
I365
I188
tp355
a(I365
I188
I368
I188
tp356
a(I368
I188
I369
I188
tp357
a(I369
I188
I371
I188
tp358
a(I371
I188
I373
I187
tp359
a(I373
I187
I374
I186
tp360
a(I374
I186
I377
I186
tp361
a(I377
I186
I379
I185
tp362
a(I379
I185
I382
I184
tp363
a(I382
I184
I384
I182
tp364
a(I384
I182
I387
I181
tp365
a(I387
I181
I389
I180
tp366
a(I389
I180
I390
I180
tp367
a(I390
I180
I394
I179
tp368
a(I394
I179
I396
I178
tp369
a(I396
I178
I399
I176
tp370
a(I399
I176
I400
I174
tp371
a(I400
I174
I403
I174
tp372
a(I403
I174
I405
I172
tp373
a(I405
I172
I406
I171
tp374
a(I406
I171
I408
I170
tp375
a(I408
I170
I410
I168
tp376
a(I410
I168
I411
I167
tp377
a(I411
I167
I413
I164
tp378
a(I413
I164
I414
I163
tp379
a(I414
I163
I416
I162
tp380
a(I416
I162
I419
I158
tp381
a(I419
I158
I422
I157
tp382
a(I422
I157
I426
I155
tp383
a(I426
I155
I427
I154
tp384
a(I427
I154
I429
I153
tp385
a(I429
I153
I430
I152
tp386
a(I430
I152
I431
I151
tp387
a(I431
I151
I432
I150
tp388
a(I432
I150
I432
I149
tp389
a(I432
I149
I433
I148
tp390
a(I433
I148
I434
I147
tp391
a(I434
I147
I436
I145
tp392
a(I436
I145
I437
I144
tp393
a(I437
I144
I438
I141
tp394
a(I438
I141
I439
I139
tp395
a(I439
I139
I439
I138
tp396
a(I439
I138
I440
I134
tp397
a(I440
I134
I441
I133
tp398
a(I441
I133
I441
I131
tp399
a(I441
I131
I441
I130
tp400
a(I441
I130
I441
I128
tp401
a(I441
I128
I442
I126
tp402
a(I442
I126
I442
I125
tp403
a(I442
I125
I442
I123
tp404
a(I442
I123
I442
I121
tp405
a(I442
I121
I442
I120
tp406
a(I442
I120
I442
I118
tp407
a(I442
I118
I442
I115
tp408
a(I442
I115
I442
I114
tp409
a(I442
I114
I442
I112
tp410
a(I442
I112
I442
I109
tp411
a(I442
I109
I442
I107
tp412
a(I442
I107
I441
I106
tp413
a(I441
I106
I441
I104
tp414
a(I441
I104
I441
I101
tp415
a(I441
I101
I440
I101
tp416
a(I440
I101
I440
I100
tp417
a(I440
I100
I439
I99
tp418
a(I439
I99
I439
I98
tp419
a(I439
I98
I438
I96
tp420
a(I438
I96
I437
I95
tp421
a(I437
I95
I437
I94
tp422
a(I437
I94
I437
I92
tp423
a(I437
I92
I436
I91
tp424
a(I436
I91
I435
I90
tp425
a(I435
I90
I434
I87
tp426
a(I434
I87
I433
I86
tp427
a(I433
I86
I431
I85
tp428
a(I431
I85
I430
I84
tp429
a(I430
I84
I429
I83
tp430
a(I429
I83
I428
I82
tp431
a(I428
I82
I427
I81
tp432
a(I427
I81
I427
I80
tp433
a(I427
I80
I426
I80
tp434
a(I426
I80
I426
I79
tp435
a(I426
I79
I425
I79
tp436
a(I425
I79
I424
I78
tp437
a(I424
I78
I423
I77
tp438
a(I423
I77
I422
I76
tp439
a(I422
I76
I421
I75
tp440
a(I421
I75
I419
I74
tp441
a(I419
I74
I418
I74
tp442
a(I418
I74
I417
I73
tp443
a(I417
I73
I414
I71
tp444
a(I414
I71
I413
I70
tp445
a(I413
I70
I411
I69
tp446
a(I411
I69
I410
I69
tp447
a(I410
I69
I410
I68
tp448
a(I410
I68
I408
I67
tp449
a(I408
I67
I406
I67
tp450
a(I406
I67
I405
I66
tp451
a(I405
I66
I403
I66
tp452
a(I403
I66
I402
I66
tp453
a(I402
I66
I401
I66
tp454
a(I401
I66
I400
I66
tp455
a(I400
I66
I399
I66
tp456
a(I399
I66
I398
I66
tp457
a(I398
I66
I397
I66
tp458
a(I397
I66
I396
I66
tp459
a(I396
I66
I395
I66
tp460
a(I395
I66
I394
I66
tp461
a(I394
I66
I393
I66
tp462
a(I393
I66
I392
I66
tp463
a(I392
I66
I391
I66
tp464
a(I391
I66
I391
I65
tp465
a(I391
I65
I390
I64
tp466
a(I390
I64
I387
I64
tp467
a(I387
I64
I386
I63
tp468
a(I386
I63
I384
I63
tp469
a(I384
I63
I383
I62
tp470
a(I383
I62
I382
I61
tp471
a(I382
I61
I381
I61
tp472
a(I381
I61
I380
I61
tp473
a(I380
I61
I379
I60
tp474
a(I379
I60
I378
I60
tp475
a(I378
I60
I377
I60
tp476
a(I377
I60
I377
I59
tp477
a(I377
I59
I376
I59
tp478
a(I376
I59
I375
I59
tp479
a(I375
I59
I374
I59
tp480
a(I374
I59
I371
I59
tp481
a(I371
I59
I369
I59
tp482
a(I369
I59
I368
I59
tp483
a(I368
I59
I366
I57
tp484
a(I366
I57
I363
I57
tp485
a(I363
I57
I361
I57
tp486
a(I361
I57
I360
I57
tp487
a(I360
I57
I359
I57
tp488
a(I359
I57
I358
I57
tp489
a(I358
I57
I357
I57
tp490
a(I357
I57
I354
I56
tp491
a(I354
I56
I353
I56
tp492
a(I353
I56
I354
I56
tp493
a(I354
I56
I356
I56
tp494
a(I356
I56
I357
I56
tp495
a(I357
I56
I358
I57
tp496
a(I358
I57
I359
I58
tp497
a(I359
I58
I360
I59
tp498
a(I360
I59
I361
I61
tp499
a(I361
I61
I362
I62
tp500
a(I362
I62
I363
I63
tp501
a(I363
I63
I365
I65
tp502
a(I365
I65
I366
I66
tp503
a(I366
I66
I369
I67
tp504
a(I369
I67
I370
I68
tp505
a(I370
I68
I372
I71
tp506
a(I372
I71
I375
I72
tp507
a(I375
I72
I379
I75
tp508
a(I379
I75
I381
I76
tp509
a(I381
I76
I384
I77
tp510
a(I384
I77
I386
I80
tp511
a(I386
I80
I387
I80
tp512
a(I387
I80
I388
I81
tp513
a(I388
I81
I389
I81
tp514
a(I389
I81
I391
I82
tp515
a(I391
I82
I392
I82
tp516
a(I392
I82
I392
I83
tp517
a(I392
I83
I393
I83
tp518
a(I393
I83
I393
I84
tp519
a(I393
I84
I394
I85
tp520
a(I394
I85
I395
I85
tp521
a(I395
I85
I396
I86
tp522
a(I396
I86
I397
I86
tp523
a(I397
I86
I398
I87
tp524
a(I398
I87
I399
I87
tp525
a(I399
I87
I400
I88
tp526
a(I400
I88
I400
I89
tp527
a(I400
I89
I401
I90
tp528
a(I401
I90
I401
I91
tp529
a(I401
I91
I402
I92
tp530
a(I402
I92
I403
I92
tp531
a(I403
I92
I404
I93
tp532
a(I404
I93
I404
I94
tp533
a(I404
I94
I405
I94
tp534
a(I405
I94
I405
I95
tp535
a(I405
I95
I406
I97
tp536
a(I406
I97
I406
I98
tp537
a(I406
I98
I406
I99
tp538
a(I406
I99
I406
I100
tp539
a(I406
I100
I406
I101
tp540
a(I406
I101
I406
I102
tp541
a(I406
I102
I406
I103
tp542
a(I406
I103
I406
I104
tp543
a(I406
I104
I405
I104
tp544
a(I405
I104
I404
I104
tp545
atp546
a(g2
I1
(lp547
(I188
I148
I189
I148
tp548
a(I189
I148
I190
I148
tp549
a(I190
I148
I191
I149
tp550
a(I191
I149
I193
I149
tp551
a(I193
I149
I194
I149
tp552
a(I194
I149
I195
I149
tp553
a(I195
I149
I196
I149
tp554
a(I196
I149
I197
I149
tp555
a(I197
I149
I198
I149
tp556
a(I198
I149
I200
I149
tp557
a(I200
I149
I202
I149
tp558
a(I202
I149
I205
I149
tp559
a(I205
I149
I207
I149
tp560
a(I207
I149
I211
I149
tp561
a(I211
I149
I215
I149
tp562
atp563
a(g2
I1
(lp564
(I379
I147
I383
I147
tp565
a(I383
I147
I387
I147
tp566
a(I387
I147
I388
I147
tp567
a(I388
I147
I390
I147
tp568
a(I390
I147
I391
I147
tp569
a(I391
I147
I392
I147
tp570
a(I392
I147
I394
I146
tp571
a(I394
I146
I397
I145
tp572
a(I397
I145
I398
I145
tp573
a(I398
I145
I400
I143
tp574
a(I400
I143
I402
I143
tp575
a(I402
I143
I406
I142
tp576
a(I406
I142
I411
I141
tp577
a(I411
I141
I414
I141
tp578
a(I414
I141
I418
I141
tp579
a(I418
I141
I422
I141
tp580
a(I422
I141
I428
I141
tp581
a(I428
I141
I432
I141
tp582
a(I432
I141
I437
I141
tp583
a(I437
I141
I443
I141
tp584
a(I443
I141
I447
I139
tp585
a(I447
I139
I453
I138
tp586
a(I453
I138
I458
I138
tp587
a(I458
I138
I464
I138
tp588
a(I464
I138
I469
I138
tp589
a(I469
I138
I473
I138
tp590
a(I473
I138
I477
I138
tp591
a(I477
I138
I481
I137
tp592
a(I481
I137
I483
I137
tp593
a(I483
I137
I487
I137
tp594
a(I487
I137
I491
I137
tp595
a(I491
I137
I495
I137
tp596
a(I495
I137
I499
I137
tp597
a(I499
I137
I501
I137
tp598
a(I501
I137
I504
I137
tp599
a(I504
I137
I506
I137
tp600
a(I506
I137
I507
I137
tp601
a(I507
I137
I508
I137
tp602
a(I508
I137
I510
I137
tp603
a(I510
I137
I512
I137
tp604
a(I512
I137
I513
I137
tp605
a(I513
I137
I514
I137
tp606
a(I514
I137
I515
I137
tp607
a(I515
I137
I517
I137
tp608
a(I517
I137
I518
I137
tp609
a(I518
I137
I519
I137
tp610
atp611
a(g2
I1
(lp612
(I529
I136
I530
I136
tp613
a(I530
I136
I531
I136
tp614
a(I531
I136
I532
I136
tp615
a(I532
I136
I535
I136
tp616
a(I535
I136
I538
I136
tp617
a(I538
I136
I540
I136
tp618
a(I540
I136
I542
I136
tp619
a(I542
I136
I546
I136
tp620
a(I546
I136
I549
I136
tp621
a(I549
I136
I553
I137
tp622
a(I553
I137
I557
I137
tp623
a(I557
I137
I561
I137
tp624
a(I561
I137
I563
I138
tp625
a(I563
I138
I567
I138
tp626
a(I567
I138
I573
I141
tp627
a(I573
I141
I581
I143
tp628
a(I581
I143
I587
I146
tp629
a(I587
I146
I595
I146
tp630
a(I595
I146
I600
I147
tp631
a(I600
I147
I608
I147
tp632
a(I608
I147
I616
I147
tp633
a(I616
I147
I621
I147
tp634
a(I621
I147
I625
I147
tp635
a(I625
I147
I629
I147
tp636
a(I629
I147
I631
I149
tp637
atp638
a(g2
I1
(lp639
(I146
I199
I147
I199
tp640
a(I147
I199
I148
I199
tp641
a(I148
I199
I149
I199
tp642
a(I149
I199
I150
I199
tp643
a(I150
I199
I151
I199
tp644
a(I151
I199
I155
I198
tp645
a(I155
I198
I159
I198
tp646
a(I159
I198
I163
I196
tp647
a(I163
I196
I169
I195
tp648
a(I169
I195
I174
I194
tp649
a(I174
I194
I182
I194
tp650
a(I182
I194
I190
I194
tp651
a(I190
I194
I198
I192
tp652
a(I198
I192
I203
I192
tp653
a(I203
I192
I209
I192
tp654
a(I209
I192
I213
I192
tp655
a(I213
I192
I215
I191
tp656
a(I215
I191
I216
I191
tp657
a(I216
I191
I217
I190
tp658
a(I217
I190
I218
I190
tp659
atp660
a(g2
I1
(lp661
(I371
I183
I374
I183
tp662
a(I374
I183
I376
I183
tp663
a(I376
I183
I379
I183
tp664
a(I379
I183
I381
I184
tp665
a(I381
I184
I385
I184
tp666
a(I385
I184
I387
I184
tp667
a(I387
I184
I391
I185
tp668
a(I391
I185
I395
I186
tp669
a(I395
I186
I398
I186
tp670
a(I398
I186
I402
I188
tp671
a(I402
I188
I406
I188
tp672
a(I406
I188
I410
I188
tp673
a(I410
I188
I414
I189
tp674
a(I414
I189
I418
I189
tp675
a(I418
I189
I422
I189
tp676
atp677
a(g2
I1
(lp678
(I553
I192
I563
I194
tp679
a(I563
I194
I569
I194
tp680
a(I569
I194
I578
I194
tp681
a(I578
I194
I586
I194
tp682
a(I586
I194
I591
I194
tp683
a(I591
I194
I599
I194
tp684
a(I599
I194
I609
I194
tp685
a(I609
I194
I616
I194
tp686
a(I616
I194
I620
I195
tp687
a(I620
I195
I628
I195
tp688
a(I628
I195
I633
I195
tp689
a(I633
I195
I637
I196
tp690
a(I637
I196
I641
I196
tp691
a(I641
I196
I642
I196
tp692
a(I642
I196
I643
I196
tp693
atp694
a(g2
I1
(lp695
(I145
I227
I145
I228
tp696
a(I145
I228
I146
I228
tp697
a(I146
I228
I148
I229
tp698
a(I148
I229
I149
I230
tp699
a(I149
I230
I152
I230
tp700
a(I152
I230
I158
I232
tp701
a(I158
I232
I163
I233
tp702
a(I163
I233
I174
I235
tp703
a(I174
I235
I181
I235
tp704
a(I181
I235
I194
I236
tp705
a(I194
I236
I204
I236
tp706
a(I204
I236
I212
I236
tp707
a(I212
I236
I222
I236
tp708
a(I222
I236
I229
I236
tp709
a(I229
I236
I233
I236
tp710
a(I233
I236
I239
I238
tp711
a(I239
I238
I244
I238
tp712
a(I244
I238
I247
I238
tp713
a(I247
I238
I249
I238
tp714
a(I249
I238
I250
I239
tp715
atp716
a(g2
I1
(lp717
(I218
I160
I218
I161
tp718
a(I218
I161
I220
I163
tp719
a(I220
I163
I224
I163
tp720
a(I224
I163
I230
I165
tp721
a(I230
I165
I236
I166
tp722
a(I236
I166
I244
I168
tp723
a(I244
I168
I251
I168
tp724
a(I251
I168
I259
I168
tp725
a(I259
I168
I269
I170
tp726
a(I269
I170
I275
I170
tp727
a(I275
I170
I280
I170
tp728
a(I280
I170
I286
I170
tp729
a(I286
I170
I288
I170
tp730
a(I288
I170
I289
I170
tp731
a(I289
I170
I290
I170
tp732
atp733
a(g2
I1
(lp734
(I203
I61
I207
I61
tp735
a(I207
I61
I209
I61
tp736
a(I209
I61
I213
I61
tp737
a(I213
I61
I217
I62
tp738
a(I217
I62
I223
I64
tp739
a(I223
I64
I229
I65
tp740
a(I229
I65
I234
I65
tp741
a(I234
I65
I242
I65
tp742
a(I242
I65
I247
I66
tp743
a(I247
I66
I253
I68
tp744
a(I253
I68
I257
I68
tp745
a(I257
I68
I260
I69
tp746
a(I260
I69
I263
I69
tp747
a(I263
I69
I267
I69
tp748
a(I267
I69
I268
I69
tp749
a(I268
I69
I269
I69
tp750
atp751
a(g2
I1
(lp752
(I420
I69
I422
I69
tp753
a(I422
I69
I426
I69
tp754
a(I426
I69
I429
I69
tp755
a(I429
I69
I433
I69
tp756
a(I433
I69
I438
I69
tp757
a(I438
I69
I442
I69
tp758
a(I442
I69
I448
I69
tp759
a(I448
I69
I452
I69
tp760
a(I452
I69
I457
I69
tp761
a(I457
I69
I461
I69
tp762
a(I461
I69
I465
I69
tp763
a(I465
I69
I470
I69
tp764
a(I470
I69
I474
I69
tp765
a(I474
I69
I478
I69
tp766
atp767
a(g2
I1
(lp768
(I562
I70
I568
I70
tp769
a(I568
I70
I572
I71
tp770
a(I572
I71
I577
I71
tp771
a(I577
I71
I583
I71
tp772
a(I583
I71
I592
I71
tp773
a(I592
I71
I597
I71
tp774
a(I597
I71
I607
I71
tp775
a(I607
I71
I612
I71
tp776
a(I612
I71
I618
I71
tp777
a(I618
I71
I623
I72
tp778
a(I623
I72
I627
I72
tp779
a(I627
I72
I630
I72
tp780
a(I630
I72
I632
I72
tp781
atp782
a(g2
I1
(lp783
(I304
I93
I304
I94
tp784
a(I304
I94
I304
I96
tp785
a(I304
I96
I304
I97
tp786
a(I304
I97
I306
I99
tp787
a(I306
I99
I308
I102
tp788
a(I308
I102
I310
I105
tp789
a(I310
I105
I314
I106
tp790
a(I314
I106
I318
I109
tp791
a(I318
I109
I322
I110
tp792
a(I322
I110
I328
I113
tp793
a(I328
I113
I334
I114
tp794
a(I334
I114
I340
I116
tp795
a(I340
I116
I345
I116
tp796
a(I345
I116
I349
I117
tp797
a(I349
I117
I355
I119
tp798
a(I355
I119
I361
I120
tp799
a(I361
I120
I365
I120
tp800
a(I365
I120
I370
I121
tp801
a(I370
I121
I371
I122
tp802
a(I371
I122
I372
I122
tp803
a(I372
I122
I373
I122
tp804
atp805
a(g2
I1
(lp806
(I513
I127
I517
I127
tp807
a(I517
I127
I522
I127
tp808
a(I522
I127
I528
I127
tp809
a(I528
I127
I533
I127
tp810
a(I533
I127
I539
I127
tp811
a(I539
I127
I546
I127
tp812
a(I546
I127
I552
I127
tp813
a(I552
I127
I559
I127
tp814
a(I559
I127
I563
I127
tp815
a(I563
I127
I567
I127
tp816
a(I567
I127
I571
I127
tp817
a(I571
I127
I573
I127
tp818
a(I573
I127
I574
I127
tp819
atp820
a(g2
I1
(lp821
(I203
I115
I206
I115
tp822
a(I206
I115
I210
I116
tp823
a(I210
I116
I215
I116
tp824
a(I215
I116
I223
I116
tp825
a(I223
I116
I231
I118
tp826
a(I231
I118
I241
I118
tp827
a(I241
I118
I248
I118
tp828
a(I248
I118
I259
I119
tp829
a(I259
I119
I276
I119
tp830
a(I276
I119
I286
I119
tp831
a(I286
I119
I296
I119
tp832
a(I296
I119
I303
I119
tp833
a(I303
I119
I313
I119
tp834
a(I313
I119
I317
I119
tp835
a(I317
I119
I321
I119
tp836
a(I321
I119
I325
I119
tp837
a(I325
I119
I326
I119
tp838
atp839
a(g2
I1
(lp840
(I431
I117
I434
I117
tp841
a(I434
I117
I436
I117
tp842
a(I436
I117
I438
I117
tp843
a(I438
I117
I442
I117
tp844
a(I442
I117
I446
I117
tp845
a(I446
I117
I452
I117
tp846
a(I452
I117
I454
I117
tp847
a(I454
I117
I458
I117
tp848
a(I458
I117
I462
I117
tp849
a(I462
I117
I466
I117
tp850
a(I466
I117
I468
I117
tp851
a(I468
I117
I472
I115
tp852
atp853
a(g2
I1
(lp854
(I589
I115
I591
I115
tp855
a(I591
I115
I594
I115
tp856
a(I594
I115
I596
I115
tp857
a(I596
I115
I597
I115
tp858
a(I597
I115
I598
I115
tp859
a(I598
I115
I599
I115
tp860
atp861
a(g2
I1
(lp862
(I628
I117
I632
I117
tp863
a(I632
I117
I636
I118
tp864
a(I636
I118
I640
I119
tp865
a(I640
I119
I642
I121
tp866
a(I642
I121
I645
I122
tp867
a(I645
I122
I649
I122
tp868
a(I649
I122
I653
I123
tp869
a(I653
I123
I655
I125
tp870
a(I655
I125
I658
I126
tp871
a(I658
I126
I660
I126
tp872
a(I660
I126
I661
I126
tp873
a(I661
I126
I663
I126
tp874
a(I663
I126
I663
I127
tp875
a(I663
I127
I666
I128
tp876
atp877
a(g2
I1
(lp878
(I470
I187
I470
I188
tp879
a(I470
I188
I470
I189
tp880
a(I470
I189
I470
I192
tp881
a(I470
I192
I473
I193
tp882
a(I473
I193
I474
I195
tp883
a(I474
I195
I477
I197
tp884
a(I477
I197
I479
I199
tp885
a(I479
I199
I482
I203
tp886
a(I482
I203
I488
I206
tp887
a(I488
I206
I492
I209
tp888
a(I492
I209
I496
I210
tp889
a(I496
I210
I499
I213
tp890
a(I499
I213
I503
I216
tp891
a(I503
I216
I507
I219
tp892
a(I507
I219
I508
I219
tp893
a(I508
I219
I509
I220
tp894
a(I509
I220
I510
I221
tp895
a(I510
I221
I511
I221
tp896
a(I511
I221
I511
I222
tp897
atp898
a(g2
I1
(lp899
(I403
I253
I403
I255
tp900
a(I403
I255
I403
I257
tp901
a(I403
I257
I404
I258
tp902
a(I404
I258
I404
I260
tp903
a(I404
I260
I404
I261
tp904
a(I404
I261
I406
I262
tp905
a(I406
I262
I407
I265
tp906
a(I407
I265
I409
I266
tp907
a(I409
I266
I410
I268
tp908
a(I410
I268
I411
I269
tp909
a(I411
I269
I412
I269
tp910
a(I412
I269
I413
I270
tp911
a(I413
I270
I414
I271
tp912
a(I414
I271
I415
I272
tp913
a(I415
I272
I417
I273
tp914
a(I417
I273
I417
I274
tp915
a(I417
I274
I419
I274
tp916
atp917
a(g2
I1
(lp918
(I467
I312
I470
I314
tp919
a(I470
I314
I472
I317
tp920
a(I472
I317
I475
I319
tp921
a(I475
I319
I478
I322
tp922
a(I478
I322
I480
I323
tp923
a(I480
I323
I481
I324
tp924
a(I481
I324
I482
I325
tp925
a(I482
I325
I483
I326
tp926
a(I483
I326
I486
I326
tp927
a(I486
I326
I487
I326
tp928
atp929
a(g2
I1
(lp930
(I169
I216
I166
I216
tp931
a(I166
I216
I164
I216
tp932
a(I164
I216
I162
I216
tp933
a(I162
I216
I158
I216
tp934
a(I158
I216
I154
I216
tp935
a(I154
I216
I150
I217
tp936
a(I150
I217
I144
I217
tp937
a(I144
I217
I140
I217
tp938
a(I140
I217
I135
I217
tp939
a(I135
I217
I129
I217
tp940
a(I129
I217
I122
I220
tp941
a(I122
I220
I116
I221
tp942
a(I116
I221
I108
I224
tp943
a(I108
I224
I103
I226
tp944
a(I103
I226
I98
I227
tp945
a(I98
I227
I94
I230
tp946
a(I94
I230
I91
I231
tp947
a(I91
I231
I87
I234
tp948
a(I87
I234
I81
I237
tp949
a(I81
I237
I75
I238
tp950
a(I75
I238
I71
I241
tp951
a(I71
I241
I65
I246
tp952
a(I65
I246
I63
I248
tp953
a(I63
I248
I58
I253
tp954
a(I58
I253
I56
I255
tp955
a(I56
I255
I52
I259
tp956
a(I52
I259
I47
I264
tp957
a(I47
I264
I46
I266
tp958
a(I46
I266
I43
I269
tp959
a(I43
I269
I43
I270
tp960
a(I43
I270
I41
I274
tp961
a(I41
I274
I40
I278
tp962
a(I40
I278
I38
I282
tp963
a(I38
I282
I38
I287
tp964
a(I38
I287
I37
I290
tp965
a(I37
I290
I36
I294
tp966
a(I36
I294
I36
I296
tp967
a(I36
I296
I36
I300
tp968
a(I36
I300
I36
I302
tp969
a(I36
I302
I36
I305
tp970
a(I36
I305
I36
I306
tp971
a(I36
I306
I36
I308
tp972
a(I36
I308
I36
I309
tp973
a(I36
I309
I36
I307
tp974
a(I36
I307
I36
I306
tp975
atp976
a(g2
I1
(lp977
(I531
I205
I535
I205
tp978
a(I535
I205
I538
I208
tp979
a(I538
I208
I542
I209
tp980
a(I542
I209
I545
I212
tp981
a(I545
I212
I549
I215
tp982
a(I549
I215
I553
I219
tp983
a(I553
I219
I557
I223
tp984
a(I557
I223
I561
I227
tp985
a(I561
I227
I568
I232
tp986
a(I568
I232
I573
I241
tp987
a(I573
I241
I582
I246
tp988
a(I582
I246
I588
I253
tp989
a(I588
I253
I595
I257
tp990
a(I595
I257
I599
I264
tp991
a(I599
I264
I608
I271
tp992
a(I608
I271
I615
I280
tp993
a(I615
I280
I622
I287
tp994
a(I622
I287
I631
I294
tp995
a(I631
I294
I638
I300
tp996
a(I638
I300
I645
I309
tp997
a(I645
I309
I649
I316
tp998
a(I649
I316
I656
I320
tp999
a(I656
I320
I662
I325
tp1000
a(I662
I325
I669
I332
tp1001
a(I669
I332
I678
I337
tp1002
a(I678
I337
I684
I340
tp1003
a(I684
I340
I690
I345
tp1004
a(I690
I345
I694
I349
tp1005
a(I694
I349
I700
I352
tp1006
a(I700
I352
I705
I355
tp1007
a(I705
I355
I709
I358
tp1008
a(I709
I358
I713
I362
tp1009
a(I713
I362
I714
I363
tp1010
a(I714
I363
I718
I365
tp1011
a(I718
I365
I719
I366
tp1012
a(I719
I366
I721
I366
tp1013
a(I721
I366
I723
I369
tp1014
a(I723
I369
I725
I369
tp1015
a(I725
I369
I726
I370
tp1016
a(I726
I370
I726
I371
tp1017
a(I726
I371
I727
I371
tp1018
a(I727
I371
I728
I372
tp1019
a(I728
I372
I730
I372
tp1020
a(I730
I372
I731
I372
tp1021
a(I731
I372
I732
I372
tp1022
a(I732
I372
I733
I372
tp1023
a(I733
I372
I734
I372
tp1024
a(I734
I372
I736
I373
tp1025
a(I736
I373
I737
I373
tp1026
a(I737
I373
I740
I373
tp1027
a(I740
I373
I741
I373
tp1028
a(I741
I373
I738
I372
tp1029
atp1030
a(g2
I1
(lp1031
(I55
I388
I55
I390
tp1032
a(I55
I390
I55
I394
tp1033
a(I55
I394
I55
I400
tp1034
a(I55
I400
I55
I404
tp1035
a(I55
I404
I55
I408
tp1036
a(I55
I408
I53
I413
tp1037
a(I53
I413
I53
I417
tp1038
a(I53
I417
I53
I421
tp1039
a(I53
I421
I53
I425
tp1040
a(I53
I425
I53
I429
tp1041
a(I53
I429
I53
I432
tp1042
a(I53
I432
I53
I435
tp1043
a(I53
I435
I53
I438
tp1044
a(I53
I438
I53
I442
tp1045
a(I53
I442
I53
I444
tp1046
a(I53
I444
I53
I448
tp1047
a(I53
I448
I53
I452
tp1048
a(I53
I452
I53
I454
tp1049
a(I53
I454
I53
I457
tp1050
a(I53
I457
I53
I458
tp1051
a(I53
I458
I53
I459
tp1052
a(I53
I459
I53
I460
tp1053
a(I53
I460
I53
I461
tp1054
a(I53
I461
I53
I462
tp1055
a(I53
I462
I54
I463
tp1056
a(I54
I463
I54
I464
tp1057
a(I54
I464
I56
I465
tp1058
a(I56
I465
I56
I466
tp1059
a(I56
I466
I57
I467
tp1060
a(I57
I467
I58
I467
tp1061
atp1062
a(g2
I1
(lp1063
(I357
I377
I356
I376
tp1064
a(I356
I376
I355
I375
tp1065
atp1066
a.