(lp1
(S'Black'
p2
I1
(lp3
(I341
I172
I319
I171
tp4
a(I319
I171
I300
I172
tp5
a(I300
I172
I277
I176
tp6
a(I277
I176
I255
I182
tp7
a(I255
I182
I211
I215
tp8
a(I211
I215
I191
I247
tp9
a(I191
I247
I181
I267
tp10
a(I181
I267
I173
I288
tp11
a(I173
I288
I173
I307
tp12
a(I173
I307
I178
I325
tp13
a(I178
I325
I183
I338
tp14
a(I183
I338
I197
I348
tp15
a(I197
I348
I217
I358
tp16
a(I217
I358
I240
I362
tp17
a(I240
I362
I270
I364
tp18
a(I270
I364
I295
I364
tp19
a(I295
I364
I328
I364
tp20
a(I328
I364
I355
I364
tp21
a(I355
I364
I385
I363
tp22
a(I385
I363
I414
I359
tp23
a(I414
I359
I434
I351
tp24
a(I434
I351
I452
I341
tp25
a(I452
I341
I468
I329
tp26
a(I468
I329
I471
I325
tp27
a(I471
I325
I471
I318
tp28
a(I471
I318
I470
I316
tp29
a(I470
I316
I469
I312
tp30
a(I469
I312
I463
I310
tp31
a(I463
I310
I461
I308
tp32
a(I461
I308
I455
I306
tp33
a(I455
I306
I452
I304
tp34
a(I452
I304
I448
I302
tp35
a(I448
I302
I444
I300
tp36
a(I444
I300
I440
I298
tp37
a(I440
I298
I438
I297
tp38
a(I438
I297
I432
I296
tp39
a(I432
I296
I430
I294
tp40
atp41
a.