(lp1
(S'Black'
p2
I1
(lp3
(I355
I328
I354
I328
tp4
a(I354
I328
I353
I328
tp5
a(I353
I328
I352
I328
tp6
a(I352
I328
I351
I327
tp7
a(I351
I327
I350
I327
tp8
a(I350
I327
I349
I326
tp9
a(I349
I326
I348
I326
tp10
a(I348
I326
I348
I325
tp11
a(I348
I325
I347
I324
tp12
a(I347
I324
I346
I323
tp13
a(I346
I323
I345
I322
tp14
a(I345
I322
I345
I321
tp15
a(I345
I321
I344
I320
tp16
a(I344
I320
I344
I319
tp17
a(I344
I319
I344
I318
tp18
a(I344
I318
I344
I316
tp19
a(I344
I316
I344
I313
tp20
a(I344
I313
I344
I312
tp21
a(I344
I312
I344
I310
tp22
a(I344
I310
I344
I309
tp23
a(I344
I309
I344
I308
tp24
a(I344
I308
I344
I307
tp25
a(I344
I307
I344
I306
tp26
a(I344
I306
I344
I305
tp27
a(I344
I305
I344
I304
tp28
a(I344
I304
I345
I303
tp29
a(I345
I303
I345
I301
tp30
a(I345
I301
I346
I300
tp31
a(I346
I300
I346
I299
tp32
a(I346
I299
I346
I298
tp33
a(I346
I298
I347
I298
tp34
a(I347
I298
I348
I297
tp35
a(I348
I297
I349
I297
tp36
a(I349
I297
I350
I297
tp37
a(I350
I297
I351
I297
tp38
a(I351
I297
I352
I297
tp39
a(I352
I297
I352
I296
tp40
a(I352
I296
I353
I296
tp41
a(I353
I296
I355
I296
tp42
a(I355
I296
I356
I296
tp43
a(I356
I296
I357
I296
tp44
a(I357
I296
I358
I296
tp45
a(I358
I296
I359
I296
tp46
a(I359
I296
I360
I296
tp47
a(I360
I296
I362
I296
tp48
a(I362
I296
I363
I296
tp49
a(I363
I296
I364
I296
tp50
a(I364
I296
I365
I296
tp51
a(I365
I296
I366
I297
tp52
a(I366
I297
I367
I298
tp53
a(I367
I298
I367
I299
tp54
a(I367
I299
I368
I300
tp55
a(I368
I300
I368
I302
tp56
a(I368
I302
I368
I303
tp57
a(I368
I303
I369
I305
tp58
a(I369
I305
I369
I306
tp59
a(I369
I306
I369
I307
tp60
a(I369
I307
I369
I308
tp61
a(I369
I308
I369
I309
tp62
a(I369
I309
I369
I310
tp63
a(I369
I310
I369
I311
tp64
a(I369
I311
I369
I313
tp65
a(I369
I313
I369
I314
tp66
a(I369
I314
I369
I317
tp67
a(I369
I317
I369
I318
tp68
a(I369
I318
I369
I320
tp69
a(I369
I320
I369
I322
tp70
a(I369
I322
I369
I323
tp71
a(I369
I323
I369
I326
tp72
a(I369
I326
I368
I326
tp73
a(I368
I326
I368
I328
tp74
a(I368
I328
I367
I328
tp75
a(I367
I328
I367
I329
tp76
a(I367
I329
I366
I330
tp77
a(I366
I330
I365
I331
tp78
a(I365
I331
I364
I332
tp79
a(I364
I332
I363
I332
tp80
a(I363
I332
I362
I332
tp81
a(I362
I332
I359
I333
tp82
a(I359
I333
I358
I333
tp83
a(I358
I333
I356
I334
tp84
a(I356
I334
I353
I336
tp85
a(I353
I336
I349
I336
tp86
a(I349
I336
I347
I336
tp87
a(I347
I336
I343
I336
tp88
a(I343
I336
I341
I336
tp89
a(I341
I336
I338
I336
tp90
a(I338
I336
I337
I336
tp91
a(I337
I336
I332
I335
tp92
a(I332
I335
I330
I335
tp93
a(I330
I335
I326
I334
tp94
a(I326
I334
I322
I330
tp95
a(I322
I330
I318
I327
tp96
a(I318
I327
I314
I324
tp97
a(I314
I324
I307
I320
tp98
a(I307
I320
I301
I315
tp99
a(I301
I315
I298
I312
tp100
a(I298
I312
I296
I308
tp101
a(I296
I308
I294
I304
tp102
a(I294
I304
I293
I302
tp103
a(I293
I302
I292
I299
tp104
a(I292
I299
I292
I297
tp105
a(I292
I297
I292
I293
tp106
a(I292
I293
I292
I290
tp107
a(I292
I290
I292
I288
tp108
a(I292
I288
I292
I287
tp109
a(I292
I287
I292
I286
tp110
a(I292
I286
I293
I284
tp111
a(I293
I284
I296
I282
tp112
a(I296
I282
I297
I280
tp113
a(I297
I280
I300
I276
tp114
a(I300
I276
I302
I274
tp115
a(I302
I274
I306
I270
tp116
a(I306
I270
I311
I266
tp117
a(I311
I266
I315
I262
tp118
a(I315
I262
I318
I258
tp119
a(I318
I258
I324
I253
tp120
a(I324
I253
I326
I250
tp121
a(I326
I250
I330
I248
tp122
a(I330
I248
I334
I246
tp123
a(I334
I246
I339
I245
tp124
a(I339
I245
I343
I244
tp125
a(I343
I244
I347
I244
tp126
a(I347
I244
I351
I242
tp127
a(I351
I242
I355
I242
tp128
a(I355
I242
I357
I242
tp129
a(I357
I242
I361
I242
tp130
a(I361
I242
I365
I241
tp131
a(I365
I241
I367
I241
tp132
a(I367
I241
I371
I241
tp133
a(I371
I241
I375
I241
tp134
a(I375
I241
I377
I241
tp135
a(I377
I241
I380
I241
tp136
a(I380
I241
I382
I241
tp137
a(I382
I241
I386
I242
tp138
a(I386
I242
I389
I245
tp139
a(I389
I245
I392
I246
tp140
a(I392
I246
I394
I248
tp141
a(I394
I248
I397
I250
tp142
a(I397
I250
I399
I253
tp143
a(I399
I253
I402
I257
tp144
a(I402
I257
I405
I260
tp145
a(I405
I260
I407
I264
tp146
a(I407
I264
I410
I266
tp147
a(I410
I266
I413
I271
tp148
a(I413
I271
I416
I275
tp149
a(I416
I275
I418
I279
tp150
a(I418
I279
I421
I283
tp151
a(I421
I283
I424
I287
tp152
a(I424
I287
I424
I289
tp153
a(I424
I289
I426
I292
tp154
a(I426
I292
I428
I293
tp155
a(I428
I293
I429
I297
tp156
a(I429
I297
I429
I301
tp157
a(I429
I301
I430
I305
tp158
a(I430
I305
I431
I307
tp159
a(I431
I307
I431
I311
tp160
a(I431
I311
I431
I313
tp161
a(I431
I313
I431
I319
tp162
a(I431
I319
I431
I321
tp163
a(I431
I321
I431
I325
tp164
a(I431
I325
I431
I329
tp165
a(I431
I329
I431
I333
tp166
a(I431
I333
I431
I336
tp167
a(I431
I336
I431
I338
tp168
a(I431
I338
I431
I340
tp169
a(I431
I340
I431
I341
tp170
a(I431
I341
I430
I343
tp171
a(I430
I343
I429
I345
tp172
a(I429
I345
I428
I346
tp173
a(I428
I346
I425
I348
tp174
a(I425
I348
I423
I349
tp175
a(I423
I349
I422
I354
tp176
a(I422
I354
I419
I355
tp177
a(I419
I355
I415
I358
tp178
a(I415
I358
I414
I359
tp179
a(I414
I359
I412
I360
tp180
a(I412
I360
I409
I361
tp181
a(I409
I361
I407
I362
tp182
a(I407
I362
I404
I364
tp183
a(I404
I364
I402
I364
tp184
a(I402
I364
I399
I365
tp185
a(I399
I365
I399
I366
tp186
a(I399
I366
I397
I366
tp187
a(I397
I366
I395
I366
tp188
a(I395
I366
I392
I366
tp189
a(I392
I366
I390
I367
tp190
a(I390
I367
I387
I367
tp191
a(I387
I367
I385
I367
tp192
a(I385
I367
I381
I367
tp193
a(I381
I367
I379
I367
tp194
a(I379
I367
I376
I367
tp195
a(I376
I367
I374
I367
tp196
a(I374
I367
I372
I367
tp197
a(I372
I367
I369
I367
tp198
a(I369
I367
I365
I368
tp199
a(I365
I368
I363
I368
tp200
a(I363
I368
I360
I368
tp201
a(I360
I368
I357
I368
tp202
a(I357
I368
I354
I368
tp203
a(I354
I368
I352
I368
tp204
a(I352
I368
I349
I368
tp205
a(I349
I368
I347
I368
tp206
a(I347
I368
I346
I368
tp207
a(I346
I368
I344
I368
tp208
a(I344
I368
I343
I368
tp209
a(I343
I368
I342
I368
tp210
a(I342
I368
I339
I368
tp211
a(I339
I368
I337
I368
tp212
a(I337
I368
I335
I368
tp213
a(I335
I368
I332
I368
tp214
a(I332
I368
I330
I368
tp215
a(I330
I368
I326
I368
tp216
a(I326
I368
I322
I368
tp217
a(I322
I368
I318
I368
tp218
a(I318
I368
I314
I368
tp219
a(I314
I368
I313
I368
tp220
a(I313
I368
I311
I367
tp221
a(I311
I367
I308
I367
tp222
a(I308
I367
I307
I367
tp223
a(I307
I367
I305
I367
tp224
a(I305
I367
I303
I366
tp225
a(I303
I366
I300
I366
tp226
a(I300
I366
I296
I366
tp227
a(I296
I366
I294
I366
tp228
a(I294
I366
I290
I364
tp229
a(I290
I364
I288
I364
tp230
a(I288
I364
I285
I364
tp231
a(I285
I364
I281
I364
tp232
a(I281
I364
I280
I363
tp233
a(I280
I363
I277
I363
tp234
a(I277
I363
I276
I363
tp235
a(I276
I363
I273
I363
tp236
a(I273
I363
I271
I362
tp237
a(I271
I362
I269
I362
tp238
a(I269
I362
I267
I361
tp239
a(I267
I361
I266
I361
tp240
a(I266
I361
I265
I361
tp241
a(I265
I361
I264
I360
tp242
a(I264
I360
I262
I359
tp243
a(I262
I359
I261
I359
tp244
a(I261
I359
I260
I359
tp245
a(I260
I359
I259
I358
tp246
a(I259
I358
I258
I358
tp247
a(I258
I358
I257
I357
tp248
a(I257
I357
I254
I356
tp249
a(I254
I356
I254
I355
tp250
a(I254
I355
I253
I354
tp251
a(I253
I354
I253
I352
tp252
a(I253
I352
I253
I351
tp253
a(I253
I351
I253
I350
tp254
a(I253
I350
I253
I349
tp255
a(I253
I349
I253
I347
tp256
a(I253
I347
I252
I346
tp257
a(I252
I346
I252
I343
tp258
a(I252
I343
I252
I340
tp259
a(I252
I340
I252
I336
tp260
a(I252
I336
I252
I334
tp261
a(I252
I334
I251
I331
tp262
a(I251
I331
I251
I327
tp263
a(I251
I327
I248
I323
tp264
a(I248
I323
I248
I319
tp265
a(I248
I319
I248
I314
tp266
a(I248
I314
I248
I311
tp267
a(I248
I311
I248
I309
tp268
a(I248
I309
I248
I307
tp269
a(I248
I307
I248
I304
tp270
a(I248
I304
I248
I302
tp271
a(I248
I302
I248
I300
tp272
a(I248
I300
I248
I296
tp273
a(I248
I296
I248
I293
tp274
a(I248
I293
I248
I291
tp275
a(I248
I291
I248
I289
tp276
a(I248
I289
I248
I286
tp277
a(I248
I286
I248
I284
tp278
a(I248
I284
I248
I282
tp279
a(I248
I282
I248
I278
tp280
a(I248
I278
I248
I275
tp281
a(I248
I275
I248
I271
tp282
a(I248
I271
I247
I267
tp283
a(I247
I267
I247
I265
tp284
a(I247
I265
I247
I261
tp285
a(I247
I261
I246
I257
tp286
a(I246
I257
I246
I255
tp287
a(I246
I255
I246
I252
tp288
a(I246
I252
I246
I250
tp289
a(I246
I250
I246
I248
tp290
a(I246
I248
I246
I245
tp291
a(I246
I245
I246
I243
tp292
a(I246
I243
I246
I240
tp293
a(I246
I240
I245
I239
tp294
a(I245
I239
I245
I237
tp295
a(I245
I237
I245
I236
tp296
a(I245
I236
I245
I234
tp297
a(I245
I234
I244
I233
tp298
a(I244
I233
I244
I232
tp299
a(I244
I232
I242
I229
tp300
a(I242
I229
I242
I228
tp301
a(I242
I228
I242
I227
tp302
a(I242
I227
I241
I225
tp303
a(I241
I225
I241
I224
tp304
a(I241
I224
I241
I223
tp305
a(I241
I223
I241
I222
tp306
a(I241
I222
I240
I222
tp307
a(I240
I222
I240
I221
tp308
a(I240
I221
I240
I220
tp309
a(I240
I220
I239
I219
tp310
a(I239
I219
I239
I218
tp311
a(I239
I218
I238
I218
tp312
a(I238
I218
I238
I217
tp313
a(I238
I217
I237
I216
tp314
a(I237
I216
I236
I215
tp315
a(I236
I215
I235
I215
tp316
a(I235
I215
I234
I215
tp317
a(I234
I215
I234
I214
tp318
a(I234
I214
I233
I214
tp319
a(I233
I214
I232
I214
tp320
a(I232
I214
I232
I212
tp321
a(I232
I212
I231
I212
tp322
a(I231
I212
I231
I211
tp323
a(I231
I211
I230
I211
tp324
a(I230
I211
I230
I210
tp325
a(I230
I210
I227
I210
tp326
a(I227
I210
I226
I210
tp327
a(I226
I210
I225
I209
tp328
a(I225
I209
I224
I209
tp329
a(I224
I209
I223
I209
tp330
a(I223
I209
I223
I208
tp331
a(I223
I208
I222
I208
tp332
a(I222
I208
I221
I208
tp333
a(I221
I208
I220
I208
tp334
a(I220
I208
I219
I208
tp335
a(I219
I208
I218
I208
tp336
a(I218
I208
I217
I208
tp337
a(I217
I208
I216
I208
tp338
a(I216
I208
I215
I208
tp339
a(I215
I208
I214
I208
tp340
a(I214
I208
I212
I208
tp341
a(I212
I208
I211
I208
tp342
a(I211
I208
I210
I208
tp343
a(I210
I208
I208
I208
tp344
a(I208
I208
I206
I208
tp345
a(I206
I208
I205
I208
tp346
a(I205
I208
I204
I208
tp347
a(I204
I208
I203
I208
tp348
a(I203
I208
I202
I208
tp349
a(I202
I208
I201
I208
tp350
a(I201
I208
I200
I208
tp351
a(I200
I208
I199
I208
tp352
a(I199
I208
I198
I208
tp353
a(I198
I208
I197
I208
tp354
a(I197
I208
I196
I208
tp355
a(I196
I208
I196
I209
tp356
a(I196
I209
I195
I209
tp357
a(I195
I209
I194
I209
tp358
a(I194
I209
I193
I209
tp359
a(I193
I209
I190
I211
tp360
a(I190
I211
I188
I211
tp361
a(I188
I211
I185
I212
tp362
a(I185
I212
I184
I213
tp363
a(I184
I213
I182
I213
tp364
a(I182
I213
I181
I214
tp365
a(I181
I214
I180
I215
tp366
a(I180
I215
I180
I216
tp367
a(I180
I216
I180
I217
tp368
a(I180
I217
I180
I218
tp369
a(I180
I218
I180
I219
tp370
a(I180
I219
I180
I220
tp371
a(I180
I220
I180
I221
tp372
a(I180
I221
I180
I222
tp373
a(I180
I222
I180
I223
tp374
a(I180
I223
I180
I224
tp375
a(I180
I224
I180
I225
tp376
a(I180
I225
I180
I226
tp377
a(I180
I226
I180
I228
tp378
a(I180
I228
I180
I229
tp379
a(I180
I229
I180
I230
tp380
a(I180
I230
I180
I231
tp381
a(I180
I231
I180
I232
tp382
a(I180
I232
I180
I234
tp383
a(I180
I234
I180
I235
tp384
a(I180
I235
I180
I236
tp385
a(I180
I236
I180
I237
tp386
a(I180
I237
I180
I238
tp387
a(I180
I238
I181
I239
tp388
a(I181
I239
I181
I240
tp389
a(I181
I240
I182
I241
tp390
a(I182
I241
I183
I242
tp391
a(I183
I242
I184
I242
tp392
a(I184
I242
I184
I243
tp393
a(I184
I243
I185
I243
tp394
a(I185
I243
I186
I243
tp395
a(I186
I243
I186
I244
tp396
a(I186
I244
I187
I244
tp397
a(I187
I244
I188
I244
tp398
a(I188
I244
I190
I244
tp399
a(I190
I244
I191
I244
tp400
a(I191
I244
I192
I244
tp401
a(I192
I244
I193
I244
tp402
a(I193
I244
I194
I244
tp403
a(I194
I244
I195
I245
tp404
a(I195
I245
I196
I245
tp405
a(I196
I245
I197
I245
tp406
a(I197
I245
I198
I247
tp407
a(I198
I247
I198
I248
tp408
a(I198
I248
I199
I249
tp409
a(I199
I249
I200
I250
tp410
a(I200
I250
I200
I251
tp411
a(I200
I251
I201
I252
tp412
a(I201
I252
I202
I253
tp413
a(I202
I253
I202
I254
tp414
a(I202
I254
I203
I255
tp415
a(I203
I255
I203
I256
tp416
a(I203
I256
I204
I257
tp417
a(I204
I257
I204
I258
tp418
a(I204
I258
I204
I260
tp419
a(I204
I260
I205
I261
tp420
a(I205
I261
I205
I262
tp421
a(I205
I262
I206
I265
tp422
a(I206
I265
I207
I266
tp423
a(I207
I266
I209
I268
tp424
a(I209
I268
I209
I269
tp425
a(I209
I269
I209
I271
tp426
a(I209
I271
I210
I274
tp427
a(I210
I274
I211
I275
tp428
a(I211
I275
I211
I276
tp429
a(I211
I276
I211
I277
tp430
a(I211
I277
I211
I278
tp431
a(I211
I278
I211
I280
tp432
a(I211
I280
I211
I281
tp433
a(I211
I281
I211
I282
tp434
a(I211
I282
I211
I283
tp435
a(I211
I283
I212
I284
tp436
a(I212
I284
I212
I286
tp437
a(I212
I286
I212
I288
tp438
a(I212
I288
I212
I289
tp439
a(I212
I289
I212
I291
tp440
a(I212
I291
I213
I294
tp441
a(I213
I294
I213
I295
tp442
a(I213
I295
I213
I297
tp443
a(I213
I297
I214
I298
tp444
a(I214
I298
I214
I299
tp445
a(I214
I299
I214
I300
tp446
a(I214
I300
I215
I302
tp447
a(I215
I302
I215
I303
tp448
a(I215
I303
I217
I306
tp449
a(I217
I306
I217
I307
tp450
a(I217
I307
I217
I309
tp451
a(I217
I309
I217
I310
tp452
a(I217
I310
I217
I311
tp453
a(I217
I311
I217
I312
tp454
a(I217
I312
I217
I313
tp455
a(I217
I313
I218
I313
tp456
a(I218
I313
I218
I314
tp457
a(I218
I314
I218
I315
tp458
a(I218
I315
I218
I317
tp459
a(I218
I317
I218
I318
tp460
a(I218
I318
I218
I320
tp461
a(I218
I320
I218
I321
tp462
a(I218
I321
I219
I323
tp463
a(I219
I323
I219
I324
tp464
a(I219
I324
I219
I325
tp465
a(I219
I325
I219
I326
tp466
a(I219
I326
I219
I327
tp467
a(I219
I327
I219
I328
tp468
a(I219
I328
I220
I329
tp469
a(I220
I329
I220
I330
tp470
a(I220
I330
I221
I333
tp471
a(I221
I333
I222
I334
tp472
a(I222
I334
I222
I336
tp473
a(I222
I336
I223
I336
tp474
a(I223
I336
I223
I337
tp475
a(I223
I337
I224
I339
tp476
a(I224
I339
I224
I340
tp477
a(I224
I340
I225
I340
tp478
a(I225
I340
I225
I341
tp479
a(I225
I341
I225
I342
tp480
a(I225
I342
I225
I343
tp481
a(I225
I343
I226
I343
tp482
a(I226
I343
I226
I344
tp483
a(I226
I344
I226
I345
tp484
a(I226
I345
I226
I347
tp485
a(I226
I347
I227
I348
tp486
a(I227
I348
I227
I349
tp487
a(I227
I349
I228
I350
tp488
a(I228
I350
I228
I351
tp489
a(I228
I351
I230
I351
tp490
a(I230
I351
I231
I352
tp491
a(I231
I352
I231
I353
tp492
a(I231
I353
I232
I354
tp493
a(I232
I354
I232
I355
tp494
a(I232
I355
I233
I356
tp495
a(I233
I356
I233
I357
tp496
a(I233
I357
I234
I357
tp497
a(I234
I357
I234
I358
tp498
a(I234
I358
I236
I359
tp499
a(I236
I359
I236
I360
tp500
a(I236
I360
I237
I360
tp501
a(I237
I360
I237
I361
tp502
a(I237
I361
I238
I361
tp503
a(I238
I361
I239
I362
tp504
a(I239
I362
I239
I363
tp505
a(I239
I363
I240
I364
tp506
a(I240
I364
I241
I364
tp507
a(I241
I364
I242
I365
tp508
a(I242
I365
I243
I365
tp509
a(I243
I365
I244
I365
tp510
a(I244
I365
I245
I365
tp511
a(I245
I365
I246
I365
tp512
a(I246
I365
I248
I367
tp513
a(I248
I367
I249
I368
tp514
a(I249
I368
I250
I369
tp515
a(I250
I369
I251
I370
tp516
a(I251
I370
I252
I370
tp517
a(I252
I370
I253
I370
tp518
a(I253
I370
I253
I371
tp519
a(I253
I371
I254
I371
tp520
a(I254
I371
I255
I372
tp521
a(I255
I372
I256
I373
tp522
a(I256
I373
I257
I374
tp523
a(I257
I374
I258
I374
tp524
a(I258
I374
I260
I374
tp525
a(I260
I374
I261
I374
tp526
a(I261
I374
I264
I375
tp527
a(I264
I375
I265
I375
tp528
a(I265
I375
I267
I376
tp529
a(I267
I376
I268
I376
tp530
a(I268
I376
I269
I376
tp531
a(I269
I376
I270
I376
tp532
a(I270
I376
I271
I376
tp533
a(I271
I376
I272
I376
tp534
a(I272
I376
I273
I376
tp535
a(I273
I376
I274
I376
tp536
a(I274
I376
I275
I376
tp537
a(I275
I376
I276
I376
tp538
a(I276
I376
I277
I377
tp539
a(I277
I377
I280
I377
tp540
a(I280
I377
I282
I378
tp541
a(I282
I378
I285
I378
tp542
a(I285
I378
I286
I378
tp543
a(I286
I378
I287
I378
tp544
a(I287
I378
I289
I380
tp545
a(I289
I380
I291
I381
tp546
a(I291
I381
I294
I381
tp547
a(I294
I381
I296
I381
tp548
a(I296
I381
I297
I381
tp549
a(I297
I381
I298
I381
tp550
a(I298
I381
I301
I381
tp551
a(I301
I381
I302
I381
tp552
a(I302
I381
I304
I381
tp553
a(I304
I381
I306
I381
tp554
a(I306
I381
I309
I381
tp555
a(I309
I381
I311
I381
tp556
a(I311
I381
I312
I382
tp557
a(I312
I382
I315
I382
tp558
a(I315
I382
I318
I382
tp559
a(I318
I382
I319
I383
tp560
a(I319
I383
I322
I383
tp561
a(I322
I383
I325
I383
tp562
a(I325
I383
I329
I384
tp563
a(I329
I384
I334
I384
tp564
a(I334
I384
I337
I384
tp565
a(I337
I384
I341
I386
tp566
a(I341
I386
I345
I386
tp567
a(I345
I386
I347
I386
tp568
a(I347
I386
I351
I387
tp569
a(I351
I387
I355
I387
tp570
a(I355
I387
I358
I388
tp571
a(I358
I388
I360
I388
tp572
a(I360
I388
I364
I388
tp573
a(I364
I388
I365
I388
tp574
a(I365
I388
I366
I388
tp575
a(I366
I388
I368
I388
tp576
a(I368
I388
I369
I388
tp577
a(I369
I388
I370
I388
tp578
a(I370
I388
I371
I388
tp579
a(I371
I388
I372
I388
tp580
a(I372
I388
I373
I388
tp581
a(I373
I388
I377
I388
tp582
a(I377
I388
I378
I388
tp583
a(I378
I388
I379
I388
tp584
a(I379
I388
I380
I388
tp585
a(I380
I388
I381
I388
tp586
a(I381
I388
I382
I388
tp587
a(I382
I388
I383
I388
tp588
a(I383
I388
I384
I388
tp589
a(I384
I388
I385
I388
tp590
a(I385
I388
I386
I388
tp591
a(I386
I388
I387
I388
tp592
a(I387
I388
I388
I388
tp593
a(I388
I388
I390
I388
tp594
a(I390
I388
I391
I388
tp595
a(I391
I388
I393
I388
tp596
a(I393
I388
I394
I388
tp597
a(I394
I388
I396
I388
tp598
a(I396
I388
I397
I387
tp599
a(I397
I387
I398
I387
tp600
a(I398
I387
I400
I387
tp601
a(I400
I387
I403
I386
tp602
a(I403
I386
I405
I386
tp603
a(I405
I386
I406
I386
tp604
a(I406
I386
I409
I386
tp605
a(I409
I386
I410
I386
tp606
a(I410
I386
I411
I386
tp607
a(I411
I386
I413
I386
tp608
a(I413
I386
I415
I386
tp609
a(I415
I386
I418
I386
tp610
a(I418
I386
I419
I386
tp611
a(I419
I386
I421
I386
tp612
a(I421
I386
I423
I386
tp613
a(I423
I386
I424
I386
tp614
a(I424
I386
I425
I386
tp615
a(I425
I386
I426
I386
tp616
a(I426
I386
I427
I386
tp617
a(I427
I386
I430
I385
tp618
a(I430
I385
I431
I385
tp619
a(I431
I385
I432
I385
tp620
a(I432
I385
I433
I385
tp621
a(I433
I385
I434
I385
tp622
a(I434
I385
I435
I384
tp623
a(I435
I384
I437
I384
tp624
a(I437
I384
I438
I384
tp625
a(I438
I384
I439
I384
tp626
a(I439
I384
I440
I384
tp627
a(I440
I384
I443
I383
tp628
a(I443
I383
I444
I383
tp629
a(I444
I383
I446
I381
tp630
a(I446
I381
I447
I381
tp631
a(I447
I381
I449
I381
tp632
a(I449
I381
I450
I381
tp633
a(I450
I381
I451
I381
tp634
a(I451
I381
I454
I381
tp635
a(I454
I381
I454
I380
tp636
a(I454
I380
I455
I380
tp637
a(I455
I380
I456
I379
tp638
a(I456
I379
I457
I379
tp639
a(I457
I379
I458
I379
tp640
a(I458
I379
I460
I379
tp641
a(I460
I379
I461
I378
tp642
a(I461
I378
I462
I378
tp643
a(I462
I378
I463
I377
tp644
a(I463
I377
I464
I376
tp645
a(I464
I376
I466
I376
tp646
a(I466
I376
I469
I375
tp647
a(I469
I375
I471
I375
tp648
a(I471
I375
I474
I375
tp649
a(I474
I375
I475
I374
tp650
a(I475
I374
I477
I374
tp651
a(I477
I374
I478
I374
tp652
a(I478
I374
I479
I374
tp653
a(I479
I374
I481
I374
tp654
a(I481
I374
I484
I373
tp655
a(I484
I373
I485
I373
tp656
a(I485
I373
I486
I373
tp657
a(I486
I373
I487
I373
tp658
a(I487
I373
I488
I373
tp659
a(I488
I373
I490
I373
tp660
a(I490
I373
I490
I372
tp661
a(I490
I372
I491
I372
tp662
a(I491
I372
I492
I372
tp663
a(I492
I372
I493
I372
tp664
a(I493
I372
I494
I371
tp665
a(I494
I371
I496
I371
tp666
a(I496
I371
I497
I371
tp667
a(I497
I371
I497
I369
tp668
a(I497
I369
I498
I369
tp669
a(I498
I369
I499
I369
tp670
a(I499
I369
I500
I368
tp671
a(I500
I368
I501
I368
tp672
a(I501
I368
I502
I367
tp673
a(I502
I367
I503
I367
tp674
a(I503
I367
I504
I366
tp675
a(I504
I366
I505
I365
tp676
a(I505
I365
I506
I365
tp677
a(I506
I365
I506
I364
tp678
a(I506
I364
I507
I364
tp679
a(I507
I364
I508
I364
tp680
a(I508
I364
I508
I363
tp681
a(I508
I363
I508
I362
tp682
a(I508
I362
I508
I361
tp683
a(I508
I361
I509
I360
tp684
a(I509
I360
I509
I359
tp685
a(I509
I359
I509
I358
tp686
a(I509
I358
I509
I357
tp687
a(I509
I357
I509
I356
tp688
a(I509
I356
I509
I355
tp689
a(I509
I355
I509
I354
tp690
a(I509
I354
I509
I353
tp691
a(I509
I353
I509
I352
tp692
a(I509
I352
I509
I351
tp693
a(I509
I351
I509
I350
tp694
a(I509
I350
I509
I349
tp695
a(I509
I349
I509
I347
tp696
a(I509
I347
I509
I346
tp697
a(I509
I346
I508
I345
tp698
a(I508
I345
I508
I344
tp699
a(I508
I344
I508
I343
tp700
a(I508
I343
I508
I342
tp701
a(I508
I342
I508
I341
tp702
a(I508
I341
I507
I340
tp703
a(I507
I340
I506
I339
tp704
a(I506
I339
I506
I338
tp705
a(I506
I338
I505
I338
tp706
a(I505
I338
I505
I337
tp707
a(I505
I337
I504
I336
tp708
a(I504
I336
I503
I335
tp709
a(I503
I335
I502
I335
tp710
a(I502
I335
I502
I336
tp711
a(I502
I336
I503
I336
tp712
a(I503
I336
I503
I337
tp713
a(I503
I337
I502
I337
tp714
a(I502
I337
I501
I337
tp715
a(I501
I337
I501
I338
tp716
a(I501
I338
I500
I339
tp717
a(I500
I339
I499
I340
tp718
a(I499
I340
I498
I341
tp719
a(I498
I341
I498
I342
tp720
a(I498
I342
I497
I343
tp721
a(I497
I343
I494
I344
tp722
a(I494
I344
I493
I346
tp723
a(I493
I346
I492
I346
tp724
a(I492
I346
I491
I347
tp725
a(I491
I347
I489
I347
tp726
a(I489
I347
I488
I347
tp727
a(I488
I347
I486
I347
tp728
a(I486
I347
I484
I348
tp729
a(I484
I348
I483
I348
tp730
a(I483
I348
I482
I348
tp731
a(I482
I348
I480
I348
tp732
a(I480
I348
I479
I349
tp733
a(I479
I349
I477
I349
tp734
a(I477
I349
I476
I349
tp735
a(I476
I349
I475
I349
tp736
a(I475
I349
I474
I350
tp737
a(I474
I350
I473
I350
tp738
a(I473
I350
I472
I350
tp739
a(I472
I350
I471
I350
tp740
a(I471
I350
I470
I350
tp741
a(I470
I350
I469
I350
tp742
a(I469
I350
I469
I351
tp743
a(I469
I351
I467
I351
tp744
a(I467
I351
I466
I351
tp745
a(I466
I351
I465
I351
tp746
a(I465
I351
I464
I351
tp747
a(I464
I351
I463
I351
tp748
a(I463
I351
I462
I351
tp749
a(I462
I351
I461
I351
tp750
a(I461
I351
I460
I351
tp751
a(I460
I351
I459
I351
tp752
a(I459
I351
I458
I351
tp753
a(I458
I351
I457
I351
tp754
a(I457
I351
I456
I351
tp755
a(I456
I351
I455
I351
tp756
a(I455
I351
I454
I351
tp757
a(I454
I351
I453
I351
tp758
a(I453
I351
I452
I351
tp759
a(I452
I351
I450
I351
tp760
a(I450
I351
I448
I351
tp761
a(I448
I351
I447
I352
tp762
a(I447
I352
I446
I352
tp763
a(I446
I352
I445
I352
tp764
a(I445
I352
I444
I352
tp765
a(I444
I352
I443
I352
tp766
a(I443
I352
I442
I352
tp767
a(I442
I352
I441
I352
tp768
a(I441
I352
I440
I352
tp769
a(I440
I352
I439
I352
tp770
a(I439
I352
I438
I352
tp771
a(I438
I352
I437
I352
tp772
a(I437
I352
I436
I352
tp773
a(I436
I352
I435
I352
tp774
a(I435
I352
I434
I352
tp775
a(I434
I352
I433
I352
tp776
a(I433
I352
I432
I352
tp777
a(I432
I352
I431
I352
tp778
a(I431
I352
I430
I352
tp779
a(I430
I352
I429
I352
tp780
a(I429
I352
I427
I352
tp781
a(I427
I352
I426
I352
tp782
a(I426
I352
I426
I353
tp783
a(I426
I353
I425
I353
tp784
a(I425
I353
I424
I353
tp785
a(I424
I353
I423
I353
tp786
a(I423
I353
I422
I353
tp787
a(I422
I353
I420
I353
tp788
a(I420
I353
I419
I353
tp789
a(I419
I353
I418
I353
tp790
a(I418
I353
I417
I353
tp791
a(I417
I353
I416
I353
tp792
a(I416
I353
I416
I354
tp793
a(I416
I354
I415
I354
tp794
a(I415
I354
I414
I354
tp795
a(I414
I354
I413
I353
tp796
a(I413
I353
I413
I352
tp797
atp798
a(g2
I1
(lp799
(I197
I207
I195
I207
tp800
a(I195
I207
I195
I206
tp801
a(I195
I206
I194
I205
tp802
a(I194
I205
I192
I202
tp803
a(I192
I202
I191
I201
tp804
a(I191
I201
I189
I199
tp805
a(I189
I199
I188
I198
tp806
a(I188
I198
I186
I196
tp807
a(I186
I196
I185
I194
tp808
a(I185
I194
I184
I193
tp809
a(I184
I193
I183
I192
tp810
a(I183
I192
I183
I191
tp811
a(I183
I191
I183
I190
tp812
a(I183
I190
I182
I189
tp813
a(I182
I189
I181
I189
tp814
a(I181
I189
I181
I188
tp815
a(I181
I188
I180
I188
tp816
a(I180
I188
I179
I188
tp817
a(I179
I188
I178
I188
tp818
a(I178
I188
I177
I188
tp819
a(I177
I188
I176
I188
tp820
a(I176
I188
I174
I188
tp821
a(I174
I188
I172
I187
tp822
a(I172
I187
I171
I187
tp823
a(I171
I187
I170
I187
tp824
a(I170
I187
I169
I186
tp825
a(I169
I186
I168
I186
tp826
a(I168
I186
I166
I185
tp827
a(I166
I185
I165
I185
tp828
a(I165
I185
I164
I185
tp829
a(I164
I185
I163
I185
tp830
a(I163
I185
I161
I185
tp831
a(I161
I185
I160
I185
tp832
a(I160
I185
I159
I185
tp833
a(I159
I185
I158
I185
tp834
a(I158
I185
I157
I186
tp835
a(I157
I186
I156
I187
tp836
a(I156
I187
I155
I187
tp837
a(I155
I187
I155
I188
tp838
a(I155
I188
I154
I190
tp839
a(I154
I190
I154
I191
tp840
a(I154
I191
I153
I192
tp841
a(I153
I192
I153
I193
tp842
a(I153
I193
I152
I195
tp843
a(I152
I195
I151
I196
tp844
a(I151
I196
I151
I198
tp845
a(I151
I198
I151
I199
tp846
a(I151
I199
I151
I200
tp847
atp848
a(g2
I1
(lp849
(I214
I209
I213
I209
tp850
a(I213
I209
I212
I208
tp851
a(I212
I208
I212
I207
tp852
a(I212
I207
I211
I207
tp853
a(I211
I207
I211
I206
tp854
a(I211
I206
I210
I204
tp855
a(I210
I204
I210
I203
tp856
a(I210
I203
I210
I202
tp857
a(I210
I202
I210
I200
tp858
a(I210
I200
I208
I197
tp859
a(I208
I197
I208
I195
tp860
a(I208
I195
I207
I192
tp861
a(I207
I192
I206
I191
tp862
a(I206
I191
I205
I189
tp863
a(I205
I189
I204
I188
tp864
a(I204
I188
I203
I187
tp865
a(I203
I187
I202
I184
tp866
a(I202
I184
I201
I183
tp867
a(I201
I183
I201
I182
tp868
a(I201
I182
I200
I181
tp869
a(I200
I181
I199
I181
tp870
a(I199
I181
I199
I180
tp871
a(I199
I180
I198
I179
tp872
a(I198
I179
I198
I178
tp873
a(I198
I178
I197
I178
tp874
a(I197
I178
I195
I176
tp875
a(I195
I176
I193
I176
tp876
a(I193
I176
I193
I173
tp877
a(I193
I173
I192
I173
tp878
a(I192
I173
I192
I172
tp879
a(I192
I172
I191
I172
tp880
a(I191
I172
I190
I171
tp881
a(I190
I171
I189
I170
tp882
a(I189
I170
I187
I169
tp883
a(I187
I169
I185
I169
tp884
a(I185
I169
I184
I168
tp885
a(I184
I168
I183
I167
tp886
a(I183
I167
I182
I166
tp887
a(I182
I166
I181
I165
tp888
a(I181
I165
I179
I165
tp889
a(I179
I165
I179
I164
tp890
a(I179
I164
I177
I164
tp891
a(I177
I164
I176
I164
tp892
a(I176
I164
I176
I163
tp893
a(I176
I163
I175
I163
tp894
a(I175
I163
I174
I163
tp895
a(I174
I163
I173
I163
tp896
a(I173
I163
I172
I163
tp897
a(I172
I163
I171
I163
tp898
a(I171
I163
I169
I163
tp899
a(I169
I163
I168
I163
tp900
a(I168
I163
I167
I164
tp901
a(I167
I164
I166
I165
tp902
a(I166
I165
I165
I165
tp903
a(I165
I165
I164
I166
tp904
a(I164
I166
I164
I167
tp905
a(I164
I167
I164
I168
tp906
a(I164
I168
I164
I169
tp907
a(I164
I169
I165
I169
tp908
a(I165
I169
I166
I169
tp909
a(I166
I169
I166
I170
tp910
a(I166
I170
I167
I170
tp911
atp912
a(g2
I1
(lp913
(I179
I218
I179
I217
tp914
a(I179
I217
I179
I216
tp915
a(I179
I216
I179
I215
tp916
a(I179
I215
I179
I214
tp917
a(I179
I214
I179
I213
tp918
a(I179
I213
I179
I211
tp919
a(I179
I211
I179
I210
tp920
a(I179
I210
I180
I210
tp921
a(I180
I210
I180
I209
tp922
a(I180
I209
I181
I209
tp923
a(I181
I209
I182
I209
tp924
a(I182
I209
I183
I209
tp925
a(I183
I209
I185
I208
tp926
a(I185
I208
I186
I208
tp927
a(I186
I208
I187
I208
tp928
a(I187
I208
I188
I208
tp929
a(I188
I208
I189
I208
tp930
a(I189
I208
I190
I209
tp931
a(I190
I209
I191
I210
tp932
a(I191
I210
I191
I211
tp933
a(I191
I211
I192
I211
tp934
a(I192
I211
I192
I212
tp935
a(I192
I212
I193
I212
tp936
a(I193
I212
I193
I213
tp937
a(I193
I213
I194
I213
tp938
a(I194
I213
I194
I214
tp939
a(I194
I214
I194
I215
tp940
a(I194
I215
I194
I216
tp941
a(I194
I216
I195
I216
tp942
a(I195
I216
I195
I217
tp943
a(I195
I217
I195
I218
tp944
a(I195
I218
I195
I219
tp945
a(I195
I219
I195
I220
tp946
a(I195
I220
I195
I222
tp947
a(I195
I222
I195
I224
tp948
a(I195
I224
I195
I225
tp949
a(I195
I225
I195
I226
tp950
a(I195
I226
I195
I227
tp951
a(I195
I227
I195
I228
tp952
a(I195
I228
I195
I229
tp953
a(I195
I229
I195
I230
tp954
a(I195
I230
I194
I230
tp955
a(I194
I230
I193
I230
tp956
a(I193
I230
I193
I231
tp957
a(I193
I231
I192
I231
tp958
a(I192
I231
I191
I231
tp959
a(I191
I231
I190
I231
tp960
a(I190
I231
I189
I231
tp961
a(I189
I231
I188
I231
tp962
a(I188
I231
I187
I231
tp963
a(I187
I231
I186
I231
tp964
a(I186
I231
I186
I230
tp965
a(I186
I230
I184
I230
tp966
a(I184
I230
I183
I229
tp967
a(I183
I229
I182
I229
tp968
a(I182
I229
I182
I228
tp969
a(I182
I228
I181
I228
tp970
a(I181
I228
I181
I227
tp971
a(I181
I227
I180
I227
tp972
a(I180
I227
I179
I226
tp973
a(I179
I226
I179
I225
tp974
a(I179
I225
I179
I224
tp975
a(I179
I224
I178
I224
tp976
a(I178
I224
I178
I223
tp977
a(I178
I223
I178
I222
tp978
a(I178
I222
I178
I221
tp979
a(I178
I221
I178
I220
tp980
a(I178
I220
I178
I218
tp981
a(I178
I218
I179
I218
tp982
a(I179
I218
I179
I217
tp983
a(I179
I217
I179
I216
tp984
a(I179
I216
I180
I216
tp985
a(I180
I216
I181
I216
tp986
a(I181
I216
I182
I215
tp987
a(I182
I215
I183
I215
tp988
a(I183
I215
I185
I215
tp989
a(I185
I215
I186
I215
tp990
a(I186
I215
I187
I215
tp991
a(I187
I215
I188
I215
tp992
a(I188
I215
I189
I215
tp993
a(I189
I215
I190
I215
tp994
a(I190
I215
I191
I215
tp995
a(I191
I215
I192
I216
tp996
a(I192
I216
I192
I217
tp997
a(I192
I217
I192
I219
tp998
a(I192
I219
I192
I220
tp999
a(I192
I220
I193
I220
tp1000
a(I193
I220
I193
I221
tp1001
a(I193
I221
I193
I222
tp1002
a(I193
I222
I193
I223
tp1003
a(I193
I223
I193
I224
tp1004
a(I193
I224
I192
I224
tp1005
a(I192
I224
I192
I225
tp1006
a(I192
I225
I191
I225
tp1007
a(I191
I225
I190
I225
tp1008
a(I190
I225
I189
I225
tp1009
a(I189
I225
I188
I225
tp1010
a(I188
I225
I187
I225
tp1011
a(I187
I225
I187
I224
tp1012
a(I187
I224
I186
I224
tp1013
a(I186
I224
I184
I224
tp1014
a(I184
I224
I183
I224
tp1015
a(I183
I224
I183
I223
tp1016
a(I183
I223
I183
I222
tp1017
a(I183
I222
I183
I221
tp1018
a(I183
I221
I183
I220
tp1019
a(I183
I220
I183
I218
tp1020
a(I183
I218
I183
I217
tp1021
a(I183
I217
I183
I216
tp1022
a(I183
I216
I183
I215
tp1023
a(I183
I215
I185
I215
tp1024
a(I185
I215
I185
I214
tp1025
a(I185
I214
I186
I214
tp1026
a(I186
I214
I187
I213
tp1027
a(I187
I213
I188
I213
tp1028
a(I188
I213
I189
I213
tp1029
a(I189
I213
I190
I213
tp1030
a(I190
I213
I191
I213
tp1031
a(I191
I213
I192
I213
tp1032
a(I192
I213
I192
I214
tp1033
a(I192
I214
I193
I215
tp1034
a(I193
I215
I193
I216
tp1035
a(I193
I216
I193
I217
tp1036
a(I193
I217
I193
I219
tp1037
a(I193
I219
I193
I220
tp1038
a(I193
I220
I193
I221
tp1039
a(I193
I221
I193
I222
tp1040
a(I193
I222
I193
I223
tp1041
a(I193
I223
I193
I224
tp1042
a(I193
I224
I193
I225
tp1043
a(I193
I225
I193
I226
tp1044
a(I193
I226
I192
I226
tp1045
a(I192
I226
I191
I226
tp1046
a(I191
I226
I190
I226
tp1047
a(I190
I226
I189
I226
tp1048
a(I189
I226
I188
I226
tp1049
a(I188
I226
I187
I226
tp1050
a(I187
I226
I186
I226
tp1051
a(I186
I226
I184
I226
tp1052
a(I184
I226
I183
I226
tp1053
a(I183
I226
I182
I226
tp1054
a(I182
I226
I181
I225
tp1055
a(I181
I225
I180
I225
tp1056
a(I180
I225
I179
I225
tp1057
a(I179
I225
I178
I225
tp1058
a(I178
I225
I178
I224
tp1059
a(I178
I224
I177
I223
tp1060
a(I177
I223
I177
I222
tp1061
a(I177
I222
I177
I221
tp1062
a(I177
I221
I177
I220
tp1063
a(I177
I220
I177
I218
tp1064
a(I177
I218
I177
I217
tp1065
a(I177
I217
I178
I216
tp1066
a(I178
I216
I178
I215
tp1067
a(I178
I215
I179
I214
tp1068
a(I179
I214
I180
I213
tp1069
a(I180
I213
I181
I213
tp1070
a(I181
I213
I182
I213
tp1071
a(I182
I213
I183
I213
tp1072
a(I183
I213
I185
I213
tp1073
a(I185
I213
I186
I213
tp1074
a(I186
I213
I187
I213
tp1075
a(I187
I213
I188
I213
tp1076
a(I188
I213
I189
I213
tp1077
a(I189
I213
I189
I214
tp1078
a(I189
I214
I190
I214
tp1079
a(I190
I214
I190
I215
tp1080
a(I190
I215
I190
I216
tp1081
a(I190
I216
I190
I217
tp1082
a(I190
I217
I190
I219
tp1083
a(I190
I219
I190
I220
tp1084
a(I190
I220
I190
I221
tp1085
a(I190
I221
I190
I222
tp1086
a(I190
I222
I190
I223
tp1087
a(I190
I223
I190
I224
tp1088
a(I190
I224
I189
I224
tp1089
a(I189
I224
I189
I225
tp1090
a(I189
I225
I188
I225
tp1091
a(I188
I225
I187
I225
tp1092
a(I187
I225
I186
I224
tp1093
a(I186
I224
I184
I223
tp1094
a(I184
I223
I184
I222
tp1095
a(I184
I222
I183
I221
tp1096
a(I183
I221
I182
I220
tp1097
a(I182
I220
I182
I218
tp1098
a(I182
I218
I182
I217
tp1099
a(I182
I217
I183
I217
tp1100
a(I183
I217
I183
I216
tp1101
a(I183
I216
I185
I216
tp1102
a(I185
I216
I186
I215
tp1103
a(I186
I215
I187
I215
tp1104
a(I187
I215
I188
I215
tp1105
a(I188
I215
I189
I215
tp1106
a(I189
I215
I190
I215
tp1107
a(I190
I215
I190
I216
tp1108
a(I190
I216
I190
I217
tp1109
a(I190
I217
I190
I219
tp1110
a(I190
I219
I190
I220
tp1111
a(I190
I220
I190
I221
tp1112
a(I190
I221
I190
I222
tp1113
a(I190
I222
I190
I223
tp1114
a(I190
I223
I190
I224
tp1115
a(I190
I224
I190
I223
tp1116
a(I190
I223
I190
I222
tp1117
a(I190
I222
I190
I221
tp1118
a(I190
I221
I190
I220
tp1119
a(I190
I220
I191
I220
tp1120
a(I191
I220
I191
I222
tp1121
a(I191
I222
I191
I223
tp1122
a(I191
I223
I191
I222
tp1123
a(I191
I222
I192
I222
tp1124
a(I192
I222
I193
I222
tp1125
a(I193
I222
I194
I222
tp1126
a(I194
I222
I194
I223
tp1127
a(I194
I223
I194
I224
tp1128
a(I194
I224
I194
I223
tp1129
a(I194
I223
I194
I222
tp1130
a(I194
I222
I194
I221
tp1131
a(I194
I221
I194
I220
tp1132
a(I194
I220
I194
I221
tp1133
a(I194
I221
I193
I220
tp1134
a(I193
I220
I193
I219
tp1135
a(I193
I219
I193
I218
tp1136
a(I193
I218
I192
I219
tp1137
a(I192
I219
I192
I218
tp1138
a(I192
I218
I191
I217
tp1139
a(I191
I217
I191
I215
tp1140
a(I191
I215
I191
I216
tp1141
a(I191
I216
I191
I217
tp1142
a(I191
I217
I191
I218
tp1143
a(I191
I218
I191
I220
tp1144
a(I191
I220
I191
I222
tp1145
a(I191
I222
I191
I223
tp1146
a(I191
I223
I191
I224
tp1147
a(I191
I224
I191
I225
tp1148
a(I191
I225
I191
I226
tp1149
a(I191
I226
I191
I225
tp1150
a(I191
I225
I191
I223
tp1151
a(I191
I223
I190
I223
tp1152
a(I190
I223
I190
I222
tp1153
a(I190
I222
I190
I221
tp1154
a(I190
I221
I189
I221
tp1155
a(I189
I221
I189
I220
tp1156
a(I189
I220
I189
I221
tp1157
a(I189
I221
I189
I222
tp1158
a(I189
I222
I189
I223
tp1159
a(I189
I223
I189
I224
tp1160
a(I189
I224
I189
I225
tp1161
a(I189
I225
I189
I226
tp1162
a(I189
I226
I189
I227
tp1163
a(I189
I227
I188
I227
tp1164
a(I188
I227
I187
I227
tp1165
a(I187
I227
I186
I227
tp1166
a(I186
I227
I184
I227
tp1167
a(I184
I227
I183
I227
tp1168
a(I183
I227
I182
I226
tp1169
a(I182
I226
I181
I226
tp1170
a(I181
I226
I180
I225
tp1171
a(I180
I225
I180
I224
tp1172
a(I180
I224
I179
I224
tp1173
a(I179
I224
I178
I224
tp1174
a(I178
I224
I178
I223
tp1175
a(I178
I223
I177
I222
tp1176
a(I177
I222
I177
I221
tp1177
a(I177
I221
I177
I220
tp1178
a(I177
I220
I178
I219
tp1179
a(I178
I219
I178
I218
tp1180
a(I178
I218
I179
I218
tp1181
a(I179
I218
I179
I217
tp1182
a(I179
I217
I180
I217
tp1183
a(I180
I217
I180
I216
tp1184
a(I180
I216
I181
I216
tp1185
a(I181
I216
I181
I215
tp1186
a(I181
I215
I182
I215
tp1187
a(I182
I215
I183
I215
tp1188
a(I183
I215
I185
I215
tp1189
a(I185
I215
I186
I215
tp1190
a(I186
I215
I187
I215
tp1191
a(I187
I215
I188
I215
tp1192
a(I188
I215
I189
I215
tp1193
a(I189
I215
I190
I216
tp1194
a(I190
I216
I191
I217
tp1195
a(I191
I217
I191
I218
tp1196
a(I191
I218
I192
I218
tp1197
a(I192
I218
I192
I219
tp1198
a(I192
I219
I192
I220
tp1199
a(I192
I220
I192
I221
tp1200
a(I192
I221
I191
I222
tp1201
a(I191
I222
I191
I223
tp1202
a(I191
I223
I191
I224
tp1203
a(I191
I224
I190
I224
tp1204
a(I190
I224
I189
I224
tp1205
a(I189
I224
I188
I224
tp1206
a(I188
I224
I188
I225
tp1207
a(I188
I225
I187
I225
tp1208
a(I187
I225
I186
I225
tp1209
a(I186
I225
I186
I224
tp1210
atp1211
a(S'Black'
p1212
I1
(lp1213
(I21
I393
I22
I393
tp1214
a(I22
I393
I23
I393
tp1215
a(I23
I393
I24
I393
tp1216
a(I24
I393
I25
I393
tp1217
a(I25
I393
I27
I393
tp1218
a(I27
I393
I28
I393
tp1219
a(I28
I393
I30
I393
tp1220
a(I30
I393
I31
I393
tp1221
a(I31
I393
I34
I393
tp1222
a(I34
I393
I35
I393
tp1223
a(I35
I393
I36
I393
tp1224
a(I36
I393
I37
I393
tp1225
a(I37
I393
I38
I393
tp1226
a(I38
I393
I39
I393
tp1227
a(I39
I393
I40
I393
tp1228
a(I40
I393
I41
I393
tp1229
a(I41
I393
I42
I393
tp1230
a(I42
I393
I43
I393
tp1231
a(I43
I393
I44
I393
tp1232
a(I44
I393
I45
I393
tp1233
a(I45
I393
I46
I393
tp1234
a(I46
I393
I47
I393
tp1235
a(I47
I393
I48
I393
tp1236
a(I48
I393
I51
I393
tp1237
a(I51
I393
I52
I393
tp1238
a(I52
I393
I53
I393
tp1239
a(I53
I393
I55
I393
tp1240
a(I55
I393
I56
I393
tp1241
a(I56
I393
I58
I393
tp1242
a(I58
I393
I61
I393
tp1243
a(I61
I393
I62
I393
tp1244
a(I62
I393
I64
I393
tp1245
a(I64
I393
I66
I393
tp1246
a(I66
I393
I67
I393
tp1247
a(I67
I393
I70
I393
tp1248
a(I70
I393
I72
I393
tp1249
a(I72
I393
I74
I393
tp1250
a(I74
I393
I77
I393
tp1251
a(I77
I393
I79
I393
tp1252
a(I79
I393
I80
I393
tp1253
a(I80
I393
I82
I393
tp1254
a(I82
I393
I85
I393
tp1255
a(I85
I393
I87
I393
tp1256
a(I87
I393
I89
I393
tp1257
a(I89
I393
I93
I393
tp1258
a(I93
I393
I96
I393
tp1259
a(I96
I393
I98
I393
tp1260
a(I98
I393
I99
I393
tp1261
a(I99
I393
I100
I393
tp1262
a(I100
I393
I102
I393
tp1263
a(I102
I393
I103
I393
tp1264
a(I103
I393
I106
I393
tp1265
a(I106
I393
I107
I393
tp1266
a(I107
I393
I109
I394
tp1267
a(I109
I394
I111
I394
tp1268
a(I111
I394
I112
I394
tp1269
a(I112
I394
I115
I394
tp1270
a(I115
I394
I119
I394
tp1271
a(I119
I394
I121
I394
tp1272
a(I121
I394
I125
I394
tp1273
a(I125
I394
I129
I394
tp1274
a(I129
I394
I131
I394
tp1275
a(I131
I394
I134
I394
tp1276
a(I134
I394
I136
I394
tp1277
a(I136
I394
I138
I394
tp1278
a(I138
I394
I141
I394
tp1279
a(I141
I394
I145
I394
tp1280
a(I145
I394
I147
I394
tp1281
a(I147
I394
I149
I394
tp1282
a(I149
I394
I152
I394
tp1283
a(I152
I394
I153
I394
tp1284
a(I153
I394
I155
I394
tp1285
a(I155
I394
I156
I394
tp1286
a(I156
I394
I158
I394
tp1287
a(I158
I394
I159
I394
tp1288
a(I159
I394
I160
I394
tp1289
a(I160
I394
I161
I394
tp1290
a(I161
I394
I164
I394
tp1291
a(I164
I394
I165
I394
tp1292
a(I165
I394
I167
I394
tp1293
a(I167
I394
I168
I394
tp1294
a(I168
I394
I170
I394
tp1295
a(I170
I394
I173
I394
tp1296
a(I173
I394
I175
I394
tp1297
a(I175
I394
I177
I394
tp1298
a(I177
I394
I178
I394
tp1299
a(I178
I394
I181
I394
tp1300
a(I181
I394
I183
I394
tp1301
a(I183
I394
I185
I394
tp1302
a(I185
I394
I186
I394
tp1303
a(I186
I394
I189
I394
tp1304
a(I189
I394
I191
I394
tp1305
a(I191
I394
I193
I394
tp1306
a(I193
I394
I196
I394
tp1307
a(I196
I394
I200
I394
tp1308
a(I200
I394
I203
I394
tp1309
a(I203
I394
I206
I394
tp1310
a(I206
I394
I210
I394
tp1311
a(I210
I394
I214
I394
tp1312
a(I214
I394
I220
I394
tp1313
a(I220
I394
I224
I394
tp1314
a(I224
I394
I228
I394
tp1315
a(I228
I394
I232
I394
tp1316
a(I232
I394
I236
I394
tp1317
a(I236
I394
I238
I394
tp1318
a(I238
I394
I242
I394
tp1319
a(I242
I394
I246
I394
tp1320
a(I246
I394
I250
I394
tp1321
a(I250
I394
I252
I394
tp1322
a(I252
I394
I256
I394
tp1323
a(I256
I394
I259
I394
tp1324
a(I259
I394
I262
I394
tp1325
a(I262
I394
I265
I394
tp1326
a(I265
I394
I269
I394
tp1327
a(I269
I394
I271
I394
tp1328
a(I271
I394
I274
I394
tp1329
a(I274
I394
I276
I394
tp1330
a(I276
I394
I280
I394
tp1331
a(I280
I394
I284
I394
tp1332
a(I284
I394
I286
I394
tp1333
a(I286
I394
I288
I394
tp1334
a(I288
I394
I292
I394
tp1335
a(I292
I394
I296
I394
tp1336
a(I296
I394
I299
I394
tp1337
a(I299
I394
I301
I394
tp1338
a(I301
I394
I303
I394
tp1339
a(I303
I394
I307
I394
tp1340
a(I307
I394
I308
I394
tp1341
a(I308
I394
I311
I394
tp1342
a(I311
I394
I312
I394
tp1343
a(I312
I394
I313
I394
tp1344
a(I313
I394
I315
I394
tp1345
a(I315
I394
I317
I394
tp1346
a(I317
I394
I318
I394
tp1347
a(I318
I394
I321
I394
tp1348
a(I321
I394
I322
I394
tp1349
a(I322
I394
I324
I394
tp1350
a(I324
I394
I326
I394
tp1351
a(I326
I394
I327
I394
tp1352
a(I327
I394
I329
I394
tp1353
a(I329
I394
I332
I394
tp1354
a(I332
I394
I334
I394
tp1355
a(I334
I394
I335
I394
tp1356
a(I335
I394
I337
I394
tp1357
a(I337
I394
I339
I394
tp1358
a(I339
I394
I341
I394
tp1359
a(I341
I394
I343
I394
tp1360
a(I343
I394
I344
I394
tp1361
a(I344
I394
I346
I394
tp1362
a(I346
I394
I347
I394
tp1363
a(I347
I394
I348
I394
tp1364
a(I348
I394
I350
I394
tp1365
a(I350
I394
I352
I394
tp1366
a(I352
I394
I353
I394
tp1367
a(I353
I394
I354
I394
tp1368
a(I354
I394
I355
I394
tp1369
a(I355
I394
I356
I394
tp1370
a(I356
I394
I357
I394
tp1371
a(I357
I394
I359
I394
tp1372
a(I359
I394
I360
I394
tp1373
a(I360
I394
I361
I394
tp1374
a(I361
I394
I362
I394
tp1375
a(I362
I394
I365
I394
tp1376
a(I365
I394
I366
I394
tp1377
a(I366
I394
I368
I394
tp1378
a(I368
I394
I369
I394
tp1379
a(I369
I394
I371
I394
tp1380
a(I371
I394
I374
I394
tp1381
a(I374
I394
I376
I394
tp1382
a(I376
I394
I377
I394
tp1383
a(I377
I394
I380
I394
tp1384
a(I380
I394
I383
I394
tp1385
a(I383
I394
I385
I394
tp1386
a(I385
I394
I388
I394
tp1387
a(I388
I394
I390
I394
tp1388
a(I390
I394
I392
I395
tp1389
a(I392
I395
I395
I395
tp1390
a(I395
I395
I399
I395
tp1391
a(I399
I395
I401
I395
tp1392
a(I401
I395
I403
I395
tp1393
a(I403
I395
I406
I395
tp1394
a(I406
I395
I407
I395
tp1395
a(I407
I395
I409
I395
tp1396
a(I409
I395
I411
I395
tp1397
a(I411
I395
I412
I395
tp1398
a(I412
I395
I415
I395
tp1399
a(I415
I395
I416
I395
tp1400
a(I416
I395
I419
I395
tp1401
a(I419
I395
I420
I395
tp1402
a(I420
I395
I423
I395
tp1403
a(I423
I395
I424
I395
tp1404
a(I424
I395
I426
I395
tp1405
a(I426
I395
I427
I395
tp1406
a(I427
I395
I429
I395
tp1407
a(I429
I395
I432
I394
tp1408
a(I432
I394
I434
I394
tp1409
a(I434
I394
I436
I394
tp1410
a(I436
I394
I437
I394
tp1411
a(I437
I394
I440
I394
tp1412
a(I440
I394
I441
I394
tp1413
a(I441
I394
I444
I394
tp1414
a(I444
I394
I447
I394
tp1415
a(I447
I394
I449
I394
tp1416
a(I449
I394
I451
I394
tp1417
a(I451
I394
I454
I394
tp1418
a(I454
I394
I456
I394
tp1419
a(I456
I394
I458
I394
tp1420
a(I458
I394
I461
I394
tp1421
a(I461
I394
I463
I394
tp1422
a(I463
I394
I465
I394
tp1423
a(I465
I394
I468
I394
tp1424
a(I468
I394
I469
I394
tp1425
a(I469
I394
I471
I394
tp1426
a(I471
I394
I473
I394
tp1427
a(I473
I394
I476
I394
tp1428
a(I476
I394
I478
I394
tp1429
a(I478
I394
I481
I394
tp1430
a(I481
I394
I482
I394
tp1431
a(I482
I394
I483
I394
tp1432
a(I483
I394
I485
I394
tp1433
a(I485
I394
I486
I394
tp1434
a(I486
I394
I487
I394
tp1435
a(I487
I394
I489
I394
tp1436
a(I489
I394
I490
I393
tp1437
a(I490
I393
I491
I393
tp1438
a(I491
I393
I492
I393
tp1439
a(I492
I393
I495
I393
tp1440
a(I495
I393
I496
I392
tp1441
a(I496
I392
I498
I392
tp1442
a(I498
I392
I499
I392
tp1443
a(I499
I392
I501
I392
tp1444
a(I501
I392
I505
I392
tp1445
a(I505
I392
I506
I392
tp1446
a(I506
I392
I508
I392
tp1447
a(I508
I392
I511
I392
tp1448
a(I511
I392
I512
I392
tp1449
a(I512
I392
I514
I392
tp1450
a(I514
I392
I516
I392
tp1451
a(I516
I392
I517
I392
tp1452
a(I517
I392
I520
I392
tp1453
a(I520
I392
I524
I392
tp1454
a(I524
I392
I526
I391
tp1455
a(I526
I391
I527
I391
tp1456
a(I527
I391
I529
I391
tp1457
a(I529
I391
I532
I391
tp1458
a(I532
I391
I534
I391
tp1459
a(I534
I391
I535
I391
tp1460
a(I535
I391
I537
I391
tp1461
a(I537
I391
I540
I391
tp1462
a(I540
I391
I541
I390
tp1463
a(I541
I390
I543
I390
tp1464
a(I543
I390
I544
I390
tp1465
a(I544
I390
I545
I390
tp1466
a(I545
I390
I546
I390
tp1467
a(I546
I390
I546
I389
tp1468
a(I546
I389
I547
I389
tp1469
a(I547
I389
I548
I389
tp1470
a(I548
I389
I549
I389
tp1471
a(I549
I389
I550
I389
tp1472
a(I550
I389
I551
I389
tp1473
a(I551
I389
I552
I389
tp1474
a(I552
I389
I555
I389
tp1475
a(I555
I389
I557
I389
tp1476
a(I557
I389
I559
I389
tp1477
a(I559
I389
I563
I388
tp1478
a(I563
I388
I567
I388
tp1479
a(I567
I388
I571
I388
tp1480
a(I571
I388
I574
I388
tp1481
a(I574
I388
I579
I388
tp1482
a(I579
I388
I583
I388
tp1483
a(I583
I388
I589
I388
tp1484
a(I589
I388
I591
I388
tp1485
a(I591
I388
I595
I388
tp1486
a(I595
I388
I600
I388
tp1487
a(I600
I388
I604
I388
tp1488
a(I604
I388
I608
I388
tp1489
a(I608
I388
I611
I388
tp1490
a(I611
I388
I615
I388
tp1491
a(I615
I388
I619
I386
tp1492
a(I619
I386
I621
I386
tp1493
a(I621
I386
I625
I386
tp1494
a(I625
I386
I627
I386
tp1495
a(I627
I386
I630
I386
tp1496
a(I630
I386
I632
I386
tp1497
a(I632
I386
I634
I386
tp1498
a(I634
I386
I637
I386
tp1499
a(I637
I386
I639
I386
tp1500
a(I639
I386
I640
I386
tp1501
a(I640
I386
I644
I386
tp1502
a(I644
I386
I646
I386
tp1503
a(I646
I386
I650
I386
tp1504
a(I650
I386
I651
I386
tp1505
a(I651
I386
I655
I386
tp1506
a(I655
I386
I657
I386
tp1507
a(I657
I386
I662
I386
tp1508
a(I662
I386
I666
I386
tp1509
a(I666
I386
I670
I386
tp1510
a(I670
I386
I678
I386
tp1511
a(I678
I386
I682
I386
tp1512
a(I682
I386
I687
I386
tp1513
a(I687
I386
I691
I386
tp1514
a(I691
I386
I695
I386
tp1515
a(I695
I386
I699
I386
tp1516
a(I699
I386
I703
I386
tp1517
a(I703
I386
I705
I386
tp1518
a(I705
I386
I709
I386
tp1519
a(I709
I386
I711
I386
tp1520
a(I711
I386
I715
I386
tp1521
a(I715
I386
I718
I386
tp1522
a(I718
I386
I720
I386
tp1523
a(I720
I386
I723
I386
tp1524
a(I723
I386
I725
I386
tp1525
a(I725
I386
I726
I386
tp1526
a(I726
I386
I727
I386
tp1527
a(I727
I386
I728
I386
tp1528
a(I728
I386
I729
I386
tp1529
a(I729
I386
I730
I386
tp1530
a(I730
I386
I731
I386
tp1531
a(I731
I386
I732
I386
tp1532
a(I732
I386
I733
I386
tp1533
a(I733
I386
I734
I386
tp1534
a(I734
I386
I735
I386
tp1535
a(I735
I386
I736
I386
tp1536
a(I736
I386
I737
I386
tp1537
a(I737
I386
I739
I386
tp1538
a(I739
I386
I740
I386
tp1539
a(I740
I386
I741
I386
tp1540
a(I741
I386
I742
I386
tp1541
a(I742
I386
I743
I386
tp1542
a(I743
I386
I744
I386
tp1543
a(I744
I386
I745
I386
tp1544
a(I745
I386
I746
I386
tp1545
a(I746
I386
I747
I386
tp1546
a(I747
I386
I748
I386
tp1547
a(I748
I386
I750
I386
tp1548
a(I750
I386
I751
I386
tp1549
a(I751
I386
I752
I386
tp1550
a(I752
I386
I753
I386
tp1551
a(I753
I386
I754
I386
tp1552
a(I754
I386
I755
I386
tp1553
a(I755
I386
I756
I386
tp1554
a(I756
I386
I758
I386
tp1555
a(I758
I386
I759
I386
tp1556
a(I759
I386
I760
I386
tp1557
a(I760
I386
I761
I386
tp1558
a(I761
I386
I762
I386
tp1559
a(I762
I386
I764
I385
tp1560
a(I764
I385
I765
I385
tp1561
a(I765
I385
I766
I385
tp1562
a(I766
I385
I767
I385
tp1563
a(I767
I385
I768
I385
tp1564
a(I768
I385
I769
I385
tp1565
a(I769
I385
I770
I385
tp1566
a(I770
I385
I772
I385
tp1567
a(I772
I385
I773
I385
tp1568
a(I773
I385
I774
I385
tp1569
atp1570
a(g1212
I1
(lp1571
(I203
I235
I203
I236
tp1572
a(I203
I236
I203
I237
tp1573
a(I203
I237
I203
I239
tp1574
a(I203
I239
I203
I240
tp1575
a(I203
I240
I203
I241
tp1576
a(I203
I241
I203
I242
tp1577
a(I203
I242
I202
I242
tp1578
a(I202
I242
I202
I243
tp1579
a(I202
I243
I201
I243
tp1580
a(I201
I243
I201
I244
tp1581
a(I201
I244
I200
I244
tp1582
a(I200
I244
I199
I244
tp1583
a(I199
I244
I198
I244
tp1584
a(I198
I244
I197
I244
tp1585
a(I197
I244
I196
I245
tp1586
a(I196
I245
I195
I245
tp1587
a(I195
I245
I194
I245
tp1588
a(I194
I245
I193
I245
tp1589
atp1590
a(g1212
I1
(lp1591
(I189
I220
I189
I219
tp1592
a(I189
I219
I189
I218
tp1593
a(I189
I218
I189
I217
tp1594
a(I189
I217
I190
I217
tp1595
a(I190
I217
I190
I218
tp1596
a(I190
I218
I190
I219
tp1597
a(I190
I219
I189
I219
tp1598
a(I189
I219
I188
I219
tp1599
a(I188
I219
I187
I219
tp1600
a(I187
I219
I187
I218
tp1601
a(I187
I218
I188
I218
tp1602
a(I188
I218
I188
I217
tp1603
a(I188
I217
I189
I217
tp1604
a(I189
I217
I190
I217
tp1605
a(I190
I217
I192
I217
tp1606
a(I192
I217
I192
I216
tp1607
a(I192
I216
I193
I216
tp1608
a(I193
I216
I193
I217
tp1609
a(I193
I217
I191
I217
tp1610
a(I191
I217
I190
I218
tp1611
a(I190
I218
I189
I218
tp1612
a(I189
I218
I189
I219
tp1613
a(I189
I219
I189
I220
tp1614
a(I189
I220
I189
I221
tp1615
a(I189
I221
I188
I221
tp1616
a(I188
I221
I187
I221
tp1617
a(I187
I221
I186
I221
tp1618
a(I186
I221
I185
I221
tp1619
a(I185
I221
I184
I221
tp1620
a(I184
I221
I185
I221
tp1621
a(I185
I221
I186
I221
tp1622
a(I186
I221
I187
I221
tp1623
a(I187
I221
I187
I220
tp1624
a(I187
I220
I187
I219
tp1625
a(I187
I219
I187
I218
tp1626
a(I187
I218
I187
I217
tp1627
a(I187
I217
I187
I218
tp1628
a(I187
I218
I186
I218
tp1629
a(I186
I218
I186
I219
tp1630
a(I186
I219
I186
I220
tp1631
a(I186
I220
I185
I220
tp1632
a(I185
I220
I186
I220
tp1633
a(I186
I220
I186
I219
tp1634
a(I186
I219
I187
I219
tp1635
a(I187
I219
I188
I219
tp1636
a(I188
I219
I189
I219
tp1637
a(I189
I219
I189
I218
tp1638
a(I189
I218
I190
I218
tp1639
atp1640
a(g1212
I1
(ltp1641
a(S'Black'
p1642
I1
(lp1643
(I295
I281
I294
I281
tp1644
a(I294
I281
I293
I281
tp1645
a(I293
I281
I293
I282
tp1646
a(I293
I282
I292
I283
tp1647
a(I292
I283
I291
I283
tp1648
a(I291
I283
I291
I284
tp1649
a(I291
I284
I290
I284
tp1650
a(I290
I284
I288
I285
tp1651
a(I288
I285
I288
I286
tp1652
a(I288
I286
I287
I286
tp1653
a(I287
I286
I286
I288
tp1654
a(I286
I288
I285
I289
tp1655
a(I285
I289
I284
I290
tp1656
a(I284
I290
I284
I291
tp1657
a(I284
I291
I283
I291
tp1658
a(I283
I291
I283
I292
tp1659
a(I283
I292
I282
I292
tp1660
a(I282
I292
I282
I293
tp1661
a(I282
I293
I282
I294
tp1662
a(I282
I294
I282
I295
tp1663
a(I282
I295
I282
I296
tp1664
a(I282
I296
I281
I296
tp1665
a(I281
I296
I281
I297
tp1666
a(I281
I297
I281
I298
tp1667
a(I281
I298
I281
I299
tp1668
a(I281
I299
I280
I299
tp1669
a(I280
I299
I280
I300
tp1670
a(I280
I300
I279
I301
tp1671
a(I279
I301
I279
I302
tp1672
a(I279
I302
I278
I302
tp1673
a(I278
I302
I278
I303
tp1674
a(I278
I303
I278
I304
tp1675
a(I278
I304
I277
I304
tp1676
a(I277
I304
I277
I305
tp1677
a(I277
I305
I277
I306
tp1678
a(I277
I306
I276
I306
tp1679
a(I276
I306
I276
I307
tp1680
a(I276
I307
I275
I307
tp1681
a(I275
I307
I275
I309
tp1682
a(I275
I309
I275
I310
tp1683
a(I275
I310
I275
I311
tp1684
a(I275
I311
I274
I311
tp1685
a(I274
I311
I274
I312
tp1686
a(I274
I312
I274
I313
tp1687
a(I274
I313
I273
I313
tp1688
a(I273
I313
I273
I314
tp1689
a(I273
I314
I273
I315
tp1690
a(I273
I315
I273
I316
tp1691
a(I273
I316
I273
I317
tp1692
a(I273
I317
I273
I318
tp1693
a(I273
I318
I273
I319
tp1694
a(I273
I319
I273
I320
tp1695
a(I273
I320
I273
I321
tp1696
a(I273
I321
I273
I322
tp1697
a(I273
I322
I273
I323
tp1698
a(I273
I323
I273
I324
tp1699
a(I273
I324
I273
I325
tp1700
a(I273
I325
I273
I326
tp1701
a(I273
I326
I273
I327
tp1702
a(I273
I327
I273
I328
tp1703
a(I273
I328
I273
I329
tp1704
a(I273
I329
I273
I331
tp1705
a(I273
I331
I273
I332
tp1706
a(I273
I332
I273
I333
tp1707
a(I273
I333
I273
I334
tp1708
a(I273
I334
I273
I335
tp1709
a(I273
I335
I273
I336
tp1710
a(I273
I336
I273
I337
tp1711
a(I273
I337
I273
I338
tp1712
a(I273
I338
I273
I339
tp1713
a(I273
I339
I273
I340
tp1714
a(I273
I340
I273
I341
tp1715
a(I273
I341
I273
I342
tp1716
a(I273
I342
I273
I343
tp1717
a(I273
I343
I274
I344
tp1718
a(I274
I344
I274
I345
tp1719
a(I274
I345
I274
I346
tp1720
a(I274
I346
I275
I346
tp1721
a(I275
I346
I276
I346
tp1722
a(I276
I346
I276
I347
tp1723
a(I276
I347
I277
I348
tp1724
a(I277
I348
I277
I349
tp1725
a(I277
I349
I278
I349
tp1726
a(I278
I349
I278
I350
tp1727
a(I278
I350
I278
I351
tp1728
a(I278
I351
I278
I353
tp1729
a(I278
I353
I279
I354
tp1730
a(I279
I354
I279
I355
tp1731
a(I279
I355
I280
I355
tp1732
a(I280
I355
I280
I356
tp1733
a(I280
I356
I280
I357
tp1734
a(I280
I357
I281
I357
tp1735
a(I281
I357
I281
I358
tp1736
a(I281
I358
I282
I359
tp1737
a(I282
I359
I283
I359
tp1738
a(I283
I359
I283
I360
tp1739
a(I283
I360
I284
I360
tp1740
a(I284
I360
I284
I361
tp1741
a(I284
I361
I285
I361
tp1742
a(I285
I361
I285
I362
tp1743
a(I285
I362
I286
I362
tp1744
a(I286
I362
I287
I362
tp1745
a(I287
I362
I289
I362
tp1746
a(I289
I362
I290
I362
tp1747
a(I290
I362
I291
I362
tp1748
a(I291
I362
I292
I362
tp1749
a(I292
I362
I293
I362
tp1750
atp1751
a(g1642
I1
(lp1752
(I288
I285
I288
I283
tp1753
a(I288
I283
I289
I283
tp1754
a(I289
I283
I290
I282
tp1755
a(I290
I282
I291
I282
tp1756
a(I291
I282
I291
I281
tp1757
a(I291
I281
I293
I281
tp1758
a(I293
I281
I294
I281
tp1759
a(I294
I281
I295
I281
tp1760
a(I295
I281
I296
I280
tp1761
a(I296
I280
I297
I280
tp1762
a(I297
I280
I297
I279
tp1763
a(I297
I279
I298
I279
tp1764
a(I298
I279
I299
I278
tp1765
a(I299
I278
I300
I278
tp1766
a(I300
I278
I301
I278
tp1767
a(I301
I278
I301
I277
tp1768
a(I301
I277
I301
I276
tp1769
a(I301
I276
I301
I275
tp1770
a(I301
I275
I302
I275
tp1771
a(I302
I275
I302
I274
tp1772
a(I302
I274
I302
I273
tp1773
a(I302
I273
I303
I273
tp1774
a(I303
I273
I303
I272
tp1775
a(I303
I272
I304
I272
tp1776
a(I304
I272
I304
I271
tp1777
a(I304
I271
I305
I271
tp1778
a(I305
I271
I305
I270
tp1779
a(I305
I270
I306
I270
tp1780
a(I306
I270
I307
I269
tp1781
a(I307
I269
I308
I268
tp1782
a(I308
I268
I309
I267
tp1783
a(I309
I267
I310
I267
tp1784
a(I310
I267
I310
I266
tp1785
a(I310
I266
I311
I266
tp1786
a(I311
I266
I312
I265
tp1787
a(I312
I265
I313
I265
tp1788
a(I313
I265
I315
I264
tp1789
a(I315
I264
I316
I263
tp1790
a(I316
I263
I316
I261
tp1791
a(I316
I261
I317
I261
tp1792
a(I317
I261
I317
I260
tp1793
a(I317
I260
I318
I259
tp1794
a(I318
I259
I319
I259
tp1795
a(I319
I259
I319
I258
tp1796
a(I319
I258
I320
I258
tp1797
a(I320
I258
I321
I258
tp1798
a(I321
I258
I322
I257
tp1799
a(I322
I257
I323
I257
tp1800
a(I323
I257
I323
I256
tp1801
a(I323
I256
I324
I256
tp1802
a(I324
I256
I324
I255
tp1803
a(I324
I255
I325
I255
tp1804
a(I325
I255
I326
I254
tp1805
a(I326
I254
I326
I253
tp1806
a(I326
I253
I326
I252
tp1807
a(I326
I252
I327
I252
tp1808
a(I327
I252
I327
I251
tp1809
a(I327
I251
I328
I251
tp1810
a(I328
I251
I328
I250
tp1811
a(I328
I250
I328
I249
tp1812
a(I328
I249
I328
I250
tp1813
a(I328
I250
I327
I250
tp1814
a(I327
I250
I327
I251
tp1815
a(I327
I251
I326
I251
tp1816
a(I326
I251
I326
I252
tp1817
a(I326
I252
I325
I253
tp1818
a(I325
I253
I325
I254
tp1819
a(I325
I254
I324
I255
tp1820
a(I324
I255
I323
I256
tp1821
a(I323
I256
I323
I257
tp1822
a(I323
I257
I322
I257
tp1823
a(I322
I257
I322
I258
tp1824
a(I322
I258
I321
I258
tp1825
a(I321
I258
I321
I259
tp1826
a(I321
I259
I321
I260
tp1827
a(I321
I260
I320
I260
tp1828
a(I320
I260
I320
I262
tp1829
a(I320
I262
I319
I262
tp1830
a(I319
I262
I318
I262
tp1831
a(I318
I262
I317
I263
tp1832
a(I317
I263
I314
I264
tp1833
a(I314
I264
I314
I265
tp1834
a(I314
I265
I313
I265
tp1835
a(I313
I265
I313
I266
tp1836
a(I313
I266
I312
I266
tp1837
a(I312
I266
I312
I267
tp1838
a(I312
I267
I311
I267
tp1839
a(I311
I267
I310
I267
tp1840
a(I310
I267
I309
I267
tp1841
a(I309
I267
I308
I267
tp1842
a(I308
I267
I307
I267
tp1843
a(I307
I267
I307
I268
tp1844
a(I307
I268
I306
I268
tp1845
a(I306
I268
I305
I268
tp1846
a(I305
I268
I305
I269
tp1847
a(I305
I269
I304
I269
tp1848
a(I304
I269
I303
I269
tp1849
a(I303
I269
I303
I270
tp1850
a(I303
I270
I302
I270
tp1851
a(I302
I270
I301
I270
tp1852
a(I301
I270
I300
I270
tp1853
a(I300
I270
I299
I270
tp1854
a(I299
I270
I298
I271
tp1855
a(I298
I271
I296
I271
tp1856
a(I296
I271
I296
I272
tp1857
a(I296
I272
I295
I273
tp1858
a(I295
I273
I294
I273
tp1859
a(I294
I273
I294
I274
tp1860
a(I294
I274
I294
I275
tp1861
a(I294
I275
I293
I275
tp1862
a(I293
I275
I293
I276
tp1863
a(I293
I276
I293
I277
tp1864
a(I293
I277
I293
I278
tp1865
a(I293
I278
I293
I279
tp1866
a(I293
I279
I293
I281
tp1867
a(I293
I281
I292
I281
tp1868
a(I292
I281
I291
I281
tp1869
a(I291
I281
I292
I281
tp1870
a(I292
I281
I292
I280
tp1871
a(I292
I280
I293
I280
tp1872
a(I293
I280
I294
I279
tp1873
a(I294
I279
I295
I278
tp1874
a(I295
I278
I297
I277
tp1875
a(I297
I277
I297
I276
tp1876
a(I297
I276
I297
I275
tp1877
a(I297
I275
I298
I275
tp1878
a(I298
I275
I298
I274
tp1879
a(I298
I274
I298
I273
tp1880
a(I298
I273
I298
I272
tp1881
a(I298
I272
I299
I272
tp1882
a(I299
I272
I299
I271
tp1883
a(I299
I271
I299
I270
tp1884
a(I299
I270
I299
I269
tp1885
a(I299
I269
I300
I269
tp1886
a(I300
I269
I300
I268
tp1887
a(I300
I268
I301
I268
tp1888
a(I301
I268
I301
I267
tp1889
a(I301
I267
I302
I267
tp1890
a(I302
I267
I303
I266
tp1891
a(I303
I266
I303
I265
tp1892
a(I303
I265
I305
I265
tp1893
a(I305
I265
I305
I264
tp1894
a(I305
I264
I306
I264
tp1895
a(I306
I264
I307
I263
tp1896
a(I307
I263
I308
I263
tp1897
a(I308
I263
I309
I263
tp1898
a(I309
I263
I309
I262
tp1899
a(I309
I262
I310
I262
tp1900
a(I310
I262
I311
I261
tp1901
a(I311
I261
I312
I261
tp1902
a(I312
I261
I313
I261
tp1903
a(I313
I261
I313
I259
tp1904
a(I313
I259
I314
I259
tp1905
a(I314
I259
I316
I259
tp1906
a(I316
I259
I317
I259
tp1907
a(I317
I259
I318
I259
tp1908
a(I318
I259
I319
I259
tp1909
a(I319
I259
I320
I259
tp1910
a(I320
I259
I321
I259
tp1911
a(I321
I259
I322
I259
tp1912
a(I322
I259
I322
I258
tp1913
a(I322
I258
I322
I257
tp1914
a(I322
I257
I323
I256
tp1915
a(I323
I256
I324
I256
tp1916
a(I324
I256
I324
I255
tp1917
a(I324
I255
I325
I255
tp1918
a(I325
I255
I326
I254
tp1919
a(I326
I254
I327
I254
tp1920
a(I327
I254
I328
I254
tp1921
a(I328
I254
I329
I254
tp1922
a(I329
I254
I329
I253
tp1923
a(I329
I253
I330
I253
tp1924
a(I330
I253
I331
I253
tp1925
a(I331
I253
I330
I253
tp1926
a(I330
I253
I329
I253
tp1927
a(I329
I253
I328
I253
tp1928
a(I328
I253
I328
I254
tp1929
a(I328
I254
I327
I254
tp1930
a(I327
I254
I327
I255
tp1931
a(I327
I255
I327
I256
tp1932
a(I327
I256
I326
I256
tp1933
a(I326
I256
I326
I257
tp1934
a(I326
I257
I325
I257
tp1935
a(I325
I257
I325
I258
tp1936
a(I325
I258
I324
I258
tp1937
a(I324
I258
I324
I260
tp1938
a(I324
I260
I324
I261
tp1939
a(I324
I261
I323
I261
tp1940
a(I323
I261
I322
I261
tp1941
a(I322
I261
I322
I262
tp1942
a(I322
I262
I321
I263
tp1943
a(I321
I263
I320
I263
tp1944
a(I320
I263
I320
I264
tp1945
a(I320
I264
I319
I265
tp1946
a(I319
I265
I318
I265
tp1947
a(I318
I265
I318
I266
tp1948
a(I318
I266
I317
I266
tp1949
a(I317
I266
I315
I266
tp1950
a(I315
I266
I314
I267
tp1951
a(I314
I267
I313
I267
tp1952
a(I313
I267
I313
I268
tp1953
a(I313
I268
I312
I268
tp1954
a(I312
I268
I311
I268
tp1955
a(I311
I268
I310
I268
tp1956
a(I310
I268
I310
I269
tp1957
a(I310
I269
I309
I269
tp1958
a(I309
I269
I308
I270
tp1959
a(I308
I270
I307
I270
tp1960
a(I307
I270
I306
I271
tp1961
a(I306
I271
I305
I271
tp1962
a(I305
I271
I304
I271
tp1963
a(I304
I271
I303
I271
tp1964
a(I303
I271
I302
I271
tp1965
a(I302
I271
I301
I272
tp1966
a(I301
I272
I300
I272
tp1967
a(I300
I272
I299
I272
tp1968
a(I299
I272
I299
I273
tp1969
a(I299
I273
I298
I273
tp1970
a(I298
I273
I297
I273
tp1971
a(I297
I273
I297
I274
tp1972
a(I297
I274
I296
I274
tp1973
a(I296
I274
I294
I274
tp1974
a(I294
I274
I293
I275
tp1975
a(I293
I275
I292
I275
tp1976
a(I292
I275
I292
I276
tp1977
a(I292
I276
I291
I276
tp1978
a(I291
I276
I291
I277
tp1979
a(I291
I277
I291
I278
tp1980
a(I291
I278
I291
I279
tp1981
a(I291
I279
I290
I279
tp1982
a(I290
I279
I290
I281
tp1983
a(I290
I281
I290
I282
tp1984
a(I290
I282
I289
I283
tp1985
a(I289
I283
I288
I283
tp1986
a(I288
I283
I288
I284
tp1987
a(I288
I284
I287
I285
tp1988
a(I287
I285
I287
I286
tp1989
a(I287
I286
I287
I287
tp1990
a(I287
I287
I287
I288
tp1991
a(I287
I288
I286
I289
tp1992
a(I286
I289
I286
I290
tp1993
a(I286
I290
I286
I291
tp1994
a(I286
I291
I286
I292
tp1995
a(I286
I292
I285
I292
tp1996
a(I285
I292
I285
I293
tp1997
a(I285
I293
I284
I293
tp1998
a(I284
I293
I284
I294
tp1999
a(I284
I294
I283
I294
tp2000
a(I283
I294
I283
I295
tp2001
a(I283
I295
I282
I296
tp2002
a(I282
I296
I282
I297
tp2003
a(I282
I297
I281
I298
tp2004
a(I281
I298
I281
I299
tp2005
a(I281
I299
I281
I300
tp2006
a(I281
I300
I281
I301
tp2007
a(I281
I301
I280
I303
tp2008
a(I280
I303
I280
I304
tp2009
a(I280
I304
I280
I305
tp2010
a(I280
I305
I279
I305
tp2011
a(I279
I305
I279
I306
tp2012
a(I279
I306
I279
I307
tp2013
a(I279
I307
I279
I308
tp2014
a(I279
I308
I279
I309
tp2015
a(I279
I309
I278
I309
tp2016
a(I278
I309
I278
I310
tp2017
a(I278
I310
I278
I311
tp2018
a(I278
I311
I278
I312
tp2019
a(I278
I312
I278
I313
tp2020
a(I278
I313
I278
I314
tp2021
a(I278
I314
I278
I315
tp2022
a(I278
I315
I278
I316
tp2023
a(I278
I316
I278
I317
tp2024
a(I278
I317
I278
I318
tp2025
a(I278
I318
I278
I319
tp2026
a(I278
I319
I278
I320
tp2027
a(I278
I320
I278
I321
tp2028
a(I278
I321
I278
I322
tp2029
a(I278
I322
I278
I323
tp2030
a(I278
I323
I278
I325
tp2031
a(I278
I325
I278
I326
tp2032
a(I278
I326
I278
I327
tp2033
a(I278
I327
I278
I328
tp2034
a(I278
I328
I278
I329
tp2035
a(I278
I329
I278
I330
tp2036
a(I278
I330
I278
I331
tp2037
a(I278
I331
I278
I332
tp2038
a(I278
I332
I278
I333
tp2039
a(I278
I333
I278
I334
tp2040
a(I278
I334
I278
I335
tp2041
a(I278
I335
I278
I336
tp2042
a(I278
I336
I278
I337
tp2043
a(I278
I337
I278
I338
tp2044
a(I278
I338
I278
I339
tp2045
a(I278
I339
I278
I340
tp2046
a(I278
I340
I279
I340
tp2047
a(I279
I340
I279
I341
tp2048
a(I279
I341
I279
I342
tp2049
a(I279
I342
I280
I342
tp2050
a(I280
I342
I280
I343
tp2051
a(I280
I343
I281
I344
tp2052
a(I281
I344
I282
I344
tp2053
a(I282
I344
I283
I344
tp2054
a(I283
I344
I283
I346
tp2055
a(I283
I346
I284
I346
tp2056
a(I284
I346
I284
I347
tp2057
a(I284
I347
I284
I348
tp2058
a(I284
I348
I284
I349
tp2059
a(I284
I349
I285
I349
tp2060
a(I285
I349
I285
I350
tp2061
a(I285
I350
I285
I351
tp2062
a(I285
I351
I285
I352
tp2063
a(I285
I352
I286
I352
tp2064
a(I286
I352
I286
I353
tp2065
a(I286
I353
I287
I354
tp2066
a(I287
I354
I288
I355
tp2067
a(I288
I355
I288
I356
tp2068
a(I288
I356
I288
I357
tp2069
a(I288
I357
I288
I358
tp2070
a(I288
I358
I289
I358
tp2071
a(I289
I358
I289
I359
tp2072
a(I289
I359
I290
I359
tp2073
a(I290
I359
I291
I359
tp2074
a(I291
I359
I292
I359
tp2075
a(I292
I359
I292
I360
tp2076
a(I292
I360
I293
I361
tp2077
a(I293
I361
I295
I361
tp2078
a(I295
I361
I295
I362
tp2079
a(I295
I362
I296
I362
tp2080
a(I296
I362
I297
I363
tp2081
a(I297
I363
I298
I363
tp2082
a(I298
I363
I298
I364
tp2083
a(I298
I364
I297
I364
tp2084
a(I297
I364
I296
I364
tp2085
a(I296
I364
I294
I364
tp2086
a(I294
I364
I293
I364
tp2087
a(I293
I364
I292
I364
tp2088
a(I292
I364
I291
I364
tp2089
a(I291
I364
I290
I364
tp2090
a(I290
I364
I289
I364
tp2091
a(I289
I364
I288
I364
tp2092
a(I288
I364
I287
I364
tp2093
a(I287
I364
I286
I364
tp2094
a(I286
I364
I285
I364
tp2095
a(I285
I364
I284
I364
tp2096
a(I284
I364
I283
I364
tp2097
a(I283
I364
I282
I363
tp2098
a(I282
I363
I282
I362
tp2099
a(I282
I362
I281
I362
tp2100
a(I281
I362
I281
I361
tp2101
a(I281
I361
I281
I360
tp2102
a(I281
I360
I280
I360
tp2103
a(I280
I360
I280
I359
tp2104
a(I280
I359
I280
I358
tp2105
a(I280
I358
I280
I357
tp2106
a(I280
I357
I280
I356
tp2107
a(I280
I356
I280
I355
tp2108
a(I280
I355
I280
I354
tp2109
a(I280
I354
I279
I354
tp2110
a(I279
I354
I279
I353
tp2111
a(I279
I353
I279
I352
tp2112
a(I279
I352
I279
I351
tp2113
a(I279
I351
I279
I350
tp2114
a(I279
I350
I279
I349
tp2115
a(I279
I349
I278
I349
tp2116
a(I278
I349
I278
I348
tp2117
a(I278
I348
I278
I347
tp2118
a(I278
I347
I278
I345
tp2119
a(I278
I345
I277
I344
tp2120
a(I277
I344
I277
I343
tp2121
a(I277
I343
I276
I343
tp2122
a(I276
I343
I276
I342
tp2123
a(I276
I342
I276
I341
tp2124
a(I276
I341
I276
I340
tp2125
a(I276
I340
I275
I340
tp2126
a(I275
I340
I275
I339
tp2127
a(I275
I339
I275
I338
tp2128
a(I275
I338
I275
I337
tp2129
a(I275
I337
I275
I336
tp2130
a(I275
I336
I274
I336
tp2131
a(I274
I336
I274
I335
tp2132
a(I274
I335
I274
I334
tp2133
a(I274
I334
I274
I333
tp2134
a(I274
I333
I274
I332
tp2135
a(I274
I332
I274
I331
tp2136
a(I274
I331
I274
I330
tp2137
a(I274
I330
I274
I329
tp2138
a(I274
I329
I274
I328
tp2139
a(I274
I328
I274
I327
tp2140
a(I274
I327
I274
I326
tp2141
a(I274
I326
I274
I324
tp2142
a(I274
I324
I274
I323
tp2143
a(I274
I323
I274
I322
tp2144
a(I274
I322
I274
I321
tp2145
a(I274
I321
I274
I320
tp2146
a(I274
I320
I274
I318
tp2147
a(I274
I318
I274
I317
tp2148
a(I274
I317
I275
I316
tp2149
a(I275
I316
I275
I315
tp2150
a(I275
I315
I275
I314
tp2151
a(I275
I314
I275
I313
tp2152
a(I275
I313
I275
I312
tp2153
a(I275
I312
I275
I311
tp2154
a(I275
I311
I275
I310
tp2155
a(I275
I310
I275
I309
tp2156
a(I275
I309
I275
I308
tp2157
a(I275
I308
I275
I307
tp2158
a(I275
I307
I275
I305
tp2159
a(I275
I305
I275
I304
tp2160
a(I275
I304
I275
I303
tp2161
a(I275
I303
I276
I303
tp2162
a(I276
I303
I276
I302
tp2163
a(I276
I302
I276
I301
tp2164
a(I276
I301
I277
I301
tp2165
a(I277
I301
I277
I300
tp2166
a(I277
I300
I277
I299
tp2167
a(I277
I299
I278
I298
tp2168
a(I278
I298
I279
I298
tp2169
a(I279
I298
I279
I297
tp2170
a(I279
I297
I280
I297
tp2171
a(I280
I297
I281
I297
tp2172
a(I281
I297
I281
I296
tp2173
a(I281
I296
I282
I296
tp2174
a(I282
I296
I282
I295
tp2175
a(I282
I295
I283
I295
tp2176
a(I283
I295
I284
I294
tp2177
a(I284
I294
I285
I293
tp2178
a(I285
I293
I285
I292
tp2179
a(I285
I292
I286
I292
tp2180
a(I286
I292
I287
I291
tp2181
a(I287
I291
I287
I290
tp2182
a(I287
I290
I288
I290
tp2183
a(I288
I290
I288
I289
tp2184
a(I288
I289
I289
I289
tp2185
a(I289
I289
I289
I288
tp2186
a(I289
I288
I290
I288
tp2187
a(I290
I288
I290
I287
tp2188
a(I290
I287
I291
I287
tp2189
a(I291
I287
I291
I286
tp2190
a(I291
I286
I292
I285
tp2191
a(I292
I285
I293
I285
tp2192
a(I293
I285
I293
I283
tp2193
a(I293
I283
I295
I283
tp2194
a(I295
I283
I296
I282
tp2195
a(I296
I282
I297
I282
tp2196
a(I297
I282
I297
I281
tp2197
a(I297
I281
I298
I281
tp2198
a(I298
I281
I299
I281
tp2199
a(I299
I281
I299
I280
tp2200
a(I299
I280
I299
I279
tp2201
a(I299
I279
I300
I279
tp2202
a(I300
I279
I300
I278
tp2203
a(I300
I278
I301
I278
tp2204
a(I301
I278
I302
I277
tp2205
a(I302
I277
I303
I277
tp2206
a(I303
I277
I303
I276
tp2207
a(I303
I276
I304
I276
tp2208
a(I304
I276
I304
I275
tp2209
a(I304
I275
I305
I275
tp2210
a(I305
I275
I305
I274
tp2211
a(I305
I274
I306
I274
tp2212
a(I306
I274
I307
I273
tp2213
a(I307
I273
I307
I272
tp2214
a(I307
I272
I308
I272
tp2215
a(I308
I272
I308
I271
tp2216
a(I308
I271
I308
I270
tp2217
a(I308
I270
I308
I269
tp2218
a(I308
I269
I308
I268
tp2219
a(I308
I268
I308
I266
tp2220
a(I308
I266
I309
I266
tp2221
a(I309
I266
I309
I264
tp2222
atp2223
a(g1642
I1
(lp2224
(I252
I342
I253
I342
tp2225
a(I253
I342
I253
I343
tp2226
a(I253
I343
I254
I343
tp2227
a(I254
I343
I254
I345
tp2228
a(I254
I345
I254
I346
tp2229
a(I254
I346
I255
I346
tp2230
a(I255
I346
I255
I347
tp2231
a(I255
I347
I256
I348
tp2232
a(I256
I348
I256
I349
tp2233
a(I256
I349
I257
I350
tp2234
a(I257
I350
I258
I351
tp2235
a(I258
I351
I258
I352
tp2236
a(I258
I352
I259
I352
tp2237
a(I259
I352
I259
I353
tp2238
a(I259
I353
I260
I353
tp2239
a(I260
I353
I260
I354
tp2240
a(I260
I354
I261
I354
tp2241
a(I261
I354
I262
I354
tp2242
a(I262
I354
I262
I355
tp2243
a(I262
I355
I264
I355
tp2244
a(I264
I355
I265
I355
tp2245
a(I265
I355
I266
I355
tp2246
a(I266
I355
I267
I355
tp2247
a(I267
I355
I268
I355
tp2248
a(I268
I355
I269
I355
tp2249
a(I269
I355
I270
I355
tp2250
a(I270
I355
I271
I355
tp2251
a(I271
I355
I272
I355
tp2252
a(I272
I355
I273
I355
tp2253
a(I273
I355
I274
I355
tp2254
a(I274
I355
I275
I355
tp2255
a(I275
I355
I276
I355
tp2256
a(I276
I355
I277
I355
tp2257
a(I277
I355
I278
I355
tp2258
a(I278
I355
I279
I355
tp2259
a(I279
I355
I280
I355
tp2260
a(I280
I355
I281
I355
tp2261
a(I281
I355
I282
I355
tp2262
a(I282
I355
I283
I355
tp2263
a(I283
I355
I284
I355
tp2264
a(I284
I355
I286
I355
tp2265
a(I286
I355
I287
I355
tp2266
a(I287
I355
I288
I355
tp2267
a(I288
I355
I288
I356
tp2268
a(I288
I356
I289
I356
tp2269
a(I289
I356
I290
I357
tp2270
a(I290
I357
I291
I357
tp2271
a(I291
I357
I291
I358
tp2272
a(I291
I358
I292
I358
tp2273
a(I292
I358
I291
I358
tp2274
a(I291
I358
I290
I358
tp2275
a(I290
I358
I290
I359
tp2276
a(I290
I359
I289
I359
tp2277
a(I289
I359
I288
I359
tp2278
a(I288
I359
I287
I359
tp2279
a(I287
I359
I285
I359
tp2280
a(I285
I359
I284
I359
tp2281
a(I284
I359
I283
I359
tp2282
a(I283
I359
I282
I359
tp2283
a(I282
I359
I281
I359
tp2284
a(I281
I359
I280
I359
tp2285
a(I280
I359
I279
I359
tp2286
a(I279
I359
I278
I359
tp2287
a(I278
I359
I277
I359
tp2288
a(I277
I359
I276
I359
tp2289
a(I276
I359
I275
I359
tp2290
a(I275
I359
I274
I359
tp2291
a(I274
I359
I273
I359
tp2292
a(I273
I359
I272
I359
tp2293
a(I272
I359
I271
I359
tp2294
a(I271
I359
I270
I359
tp2295
a(I270
I359
I269
I359
tp2296
a(I269
I359
I268
I359
tp2297
a(I268
I359
I267
I359
tp2298
a(I267
I359
I266
I359
tp2299
a(I266
I359
I266
I358
tp2300
a(I266
I358
I265
I358
tp2301
a(I265
I358
I265
I357
tp2302
a(I265
I357
I263
I357
tp2303
a(I263
I357
I262
I357
tp2304
a(I262
I357
I262
I356
tp2305
a(I262
I356
I261
I356
tp2306
a(I261
I356
I260
I355
tp2307
a(I260
I355
I259
I355
tp2308
a(I259
I355
I259
I354
tp2309
a(I259
I354
I258
I354
tp2310
a(I258
I354
I257
I353
tp2311
a(I257
I353
I256
I352
tp2312
a(I256
I352
I256
I351
tp2313
a(I256
I351
I255
I351
tp2314
a(I255
I351
I255
I350
tp2315
a(I255
I350
I255
I349
tp2316
a(I255
I349
I254
I349
tp2317
a(I254
I349
I254
I348
tp2318
a(I254
I348
I254
I347
tp2319
a(I254
I347
I254
I346
tp2320
a(I254
I346
I253
I344
tp2321
a(I253
I344
I253
I343
tp2322
a(I253
I343
I252
I343
tp2323
a(I252
I343
I252
I342
tp2324
a(I252
I342
I251
I342
tp2325
a(I251
I342
I250
I342
tp2326
a(I250
I342
I250
I341
tp2327
a(I250
I341
I250
I340
tp2328
a(I250
I340
I249
I340
tp2329
a(I249
I340
I249
I339
tp2330
a(I249
I339
I248
I338
tp2331
a(I248
I338
I248
I337
tp2332
a(I248
I337
I248
I336
tp2333
a(I248
I336
I247
I336
tp2334
a(I247
I336
I247
I335
tp2335
a(I247
I335
I247
I334
tp2336
a(I247
I334
I247
I333
tp2337
a(I247
I333
I247
I332
tp2338
a(I247
I332
I246
I332
tp2339
a(I246
I332
I246
I331
tp2340
a(I246
I331
I246
I330
tp2341
a(I246
I330
I246
I328
tp2342
a(I246
I328
I246
I326
tp2343
a(I246
I326
I246
I325
tp2344
a(I246
I325
I246
I324
tp2345
a(I246
I324
I246
I323
tp2346
a(I246
I323
I246
I322
tp2347
a(I246
I322
I246
I323
tp2348
a(I246
I323
I246
I324
tp2349
a(I246
I324
I247
I325
tp2350
a(I247
I325
I247
I327
tp2351
a(I247
I327
I248
I327
tp2352
a(I248
I327
I248
I328
tp2353
a(I248
I328
I248
I329
tp2354
a(I248
I329
I248
I330
tp2355
a(I248
I330
I249
I330
tp2356
a(I249
I330
I250
I331
tp2357
a(I250
I331
I250
I332
tp2358
a(I250
I332
I250
I333
tp2359
a(I250
I333
I250
I334
tp2360
a(I250
I334
I250
I335
tp2361
a(I250
I335
I252
I335
tp2362
a(I252
I335
I252
I336
tp2363
a(I252
I336
I252
I337
tp2364
a(I252
I337
I253
I337
tp2365
a(I253
I337
I253
I338
tp2366
a(I253
I338
I254
I339
tp2367
a(I254
I339
I254
I340
tp2368
a(I254
I340
I255
I341
tp2369
a(I255
I341
I256
I341
tp2370
a(I256
I341
I257
I342
tp2371
a(I257
I342
I257
I343
tp2372
a(I257
I343
I258
I343
tp2373
a(I258
I343
I258
I344
tp2374
a(I258
I344
I259
I344
tp2375
a(I259
I344
I259
I345
tp2376
a(I259
I345
I261
I345
tp2377
a(I261
I345
I261
I346
tp2378
a(I261
I346
I262
I346
tp2379
a(I262
I346
I263
I348
tp2380
a(I263
I348
I263
I349
tp2381
a(I263
I349
I264
I349
tp2382
a(I264
I349
I265
I349
tp2383
a(I265
I349
I265
I350
tp2384
a(I265
I350
I266
I350
tp2385
a(I266
I350
I266
I351
tp2386
a(I266
I351
I267
I351
tp2387
a(I267
I351
I268
I351
tp2388
a(I268
I351
I269
I351
tp2389
a(I269
I351
I270
I351
tp2390
a(I270
I351
I271
I351
tp2391
a(I271
I351
I272
I351
tp2392
a(I272
I351
I273
I351
tp2393
a(I273
I351
I274
I351
tp2394
a(I274
I351
I275
I351
tp2395
a(I275
I351
I276
I351
tp2396
a(I276
I351
I277
I351
tp2397
a(I277
I351
I278
I351
tp2398
a(I278
I351
I279
I351
tp2399
a(I279
I351
I280
I351
tp2400
a(I280
I351
I281
I351
tp2401
a(I281
I351
I283
I351
tp2402
a(I283
I351
I284
I351
tp2403
a(I284
I351
I284
I352
tp2404
a(I284
I352
I285
I352
tp2405
a(I285
I352
I286
I352
tp2406
a(I286
I352
I286
I353
tp2407
a(I286
I353
I287
I353
tp2408
a(I287
I353
I288
I353
tp2409
a(I288
I353
I288
I354
tp2410
a(I288
I354
I288
I355
tp2411
a(I288
I355
I288
I356
tp2412
a(I288
I356
I288
I357
tp2413
a(I288
I357
I287
I357
tp2414
a(I287
I357
I287
I358
tp2415
a(I287
I358
I286
I358
tp2416
a(I286
I358
I285
I359
tp2417
a(I285
I359
I284
I359
tp2418
a(I284
I359
I282
I359
tp2419
a(I282
I359
I281
I359
tp2420
a(I281
I359
I280
I359
tp2421
a(I280
I359
I279
I359
tp2422
a(I279
I359
I278
I359
tp2423
a(I278
I359
I277
I359
tp2424
a(I277
I359
I276
I359
tp2425
a(I276
I359
I275
I359
tp2426
a(I275
I359
I274
I359
tp2427
a(I274
I359
I273
I359
tp2428
a(I273
I359
I272
I359
tp2429
a(I272
I359
I271
I359
tp2430
a(I271
I359
I270
I359
tp2431
a(I270
I359
I269
I359
tp2432
a(I269
I359
I268
I359
tp2433
a(I268
I359
I267
I359
tp2434
a(I267
I359
I266
I359
tp2435
a(I266
I359
I265
I359
tp2436
a(I265
I359
I264
I359
tp2437
a(I264
I359
I263
I359
tp2438
a(I263
I359
I263
I358
tp2439
a(I263
I358
I262
I358
tp2440
a(I262
I358
I260
I358
tp2441
a(I260
I358
I260
I357
tp2442
a(I260
I357
I259
I357
tp2443
a(I259
I357
I259
I356
tp2444
a(I259
I356
I258
I356
tp2445
a(I258
I356
I258
I355
tp2446
a(I258
I355
I258
I354
tp2447
a(I258
I354
I257
I354
tp2448
a(I257
I354
I257
I353
tp2449
a(I257
I353
I257
I352
tp2450
a(I257
I352
I256
I352
tp2451
a(I256
I352
I256
I351
tp2452
a(I256
I351
I255
I350
tp2453
a(I255
I350
I255
I347
tp2454
a(I255
I347
I254
I347
tp2455
a(I254
I347
I253
I346
tp2456
a(I253
I346
I253
I345
tp2457
a(I253
I345
I252
I344
tp2458
a(I252
I344
I251
I344
tp2459
a(I251
I344
I251
I343
tp2460
a(I251
I343
I250
I342
tp2461
a(I250
I342
I249
I341
tp2462
a(I249
I341
I249
I340
tp2463
a(I249
I340
I250
I340
tp2464
a(I250
I340
I251
I340
tp2465
a(I251
I340
I251
I341
tp2466
a(I251
I341
I251
I342
tp2467
a(I251
I342
I252
I342
tp2468
a(I252
I342
I252
I343
tp2469
a(I252
I343
I253
I344
tp2470
a(I253
I344
I254
I345
tp2471
a(I254
I345
I254
I346
tp2472
a(I254
I346
I255
I347
tp2473
a(I255
I347
I256
I347
tp2474
a(I256
I347
I257
I348
tp2475
a(I257
I348
I258
I349
tp2476
a(I258
I349
I259
I349
tp2477
a(I259
I349
I261
I351
tp2478
a(I261
I351
I262
I351
tp2479
a(I262
I351
I262
I352
tp2480
a(I262
I352
I263
I352
tp2481
a(I263
I352
I264
I352
tp2482
a(I264
I352
I264
I353
tp2483
a(I264
I353
I265
I353
tp2484
a(I265
I353
I266
I353
tp2485
a(I266
I353
I266
I354
tp2486
a(I266
I354
I267
I354
tp2487
a(I267
I354
I268
I354
tp2488
a(I268
I354
I269
I354
tp2489
a(I269
I354
I270
I354
tp2490
a(I270
I354
I271
I354
tp2491
a(I271
I354
I272
I354
tp2492
a(I272
I354
I273
I354
tp2493
a(I273
I354
I273
I355
tp2494
a(I273
I355
I274
I355
tp2495
a(I274
I355
I275
I355
tp2496
a(I275
I355
I276
I355
tp2497
a(I276
I355
I277
I355
tp2498
a(I277
I355
I278
I355
tp2499
a(I278
I355
I279
I355
tp2500
a(I279
I355
I280
I355
tp2501
a(I280
I355
I281
I355
tp2502
a(I281
I355
I283
I355
tp2503
a(I283
I355
I284
I355
tp2504
a(I284
I355
I285
I355
tp2505
a(I285
I355
I286
I356
tp2506
a(I286
I356
I287
I356
tp2507
a(I287
I356
I288
I356
tp2508
atp2509
a.